
x666:     file format elf64-x86-64


Disassembly of section .init:

0000000000432650 <_init>:
  432650:	48 83 ec 08          	sub    $0x8,%rsp
  432654:	48 8b 05 9d e9 21 00 	mov    0x21e99d(%rip),%rax        # 650ff8 <__gmon_start__>
  43265b:	48 85 c0             	test   %rax,%rax
  43265e:	74 02                	je     432662 <_init+0x12>
  432660:	ff d0                	callq  *%rax
  432662:	48 83 c4 08          	add    $0x8,%rsp
  432666:	c3                   	retq   

Disassembly of section .plt:

0000000000432670 <.plt>:
  432670:	ff 35 92 e9 21 00    	pushq  0x21e992(%rip)        # 651008 <_GLOBAL_OFFSET_TABLE_+0x8>
  432676:	ff 25 94 e9 21 00    	jmpq   *0x21e994(%rip)        # 651010 <_GLOBAL_OFFSET_TABLE_+0x10>
  43267c:	0f 1f 40 00          	nopl   0x0(%rax)

0000000000432680 <std::basic_ios<char, std::char_traits<char> >::fail() const@plt>:
  432680:	ff 25 92 e9 21 00    	jmpq   *0x21e992(%rip)        # 651018 <std::basic_ios<char, std::char_traits<char> >::fail() const@GLIBCXX_3.4>
  432686:	68 00 00 00 00       	pushq  $0x0
  43268b:	e9 e0 ff ff ff       	jmpq   432670 <.plt>

0000000000432690 <std::allocator<char>::~allocator()@plt>:
  432690:	ff 25 8a e9 21 00    	jmpq   *0x21e98a(%rip)        # 651020 <std::allocator<char>::~allocator()@GLIBCXX_3.4>
  432696:	68 01 00 00 00       	pushq  $0x1
  43269b:	e9 d0 ff ff ff       	jmpq   432670 <.plt>

00000000004326a0 <std::basic_fstream<char, std::char_traits<char> >::~basic_fstream()@plt>:
  4326a0:	ff 25 82 e9 21 00    	jmpq   *0x21e982(%rip)        # 651028 <std::basic_fstream<char, std::char_traits<char> >::~basic_fstream()@GLIBCXX_3.4>
  4326a6:	68 02 00 00 00       	pushq  $0x2
  4326ab:	e9 c0 ff ff ff       	jmpq   432670 <.plt>

00000000004326b0 <std::ostream::operator<<(unsigned long)@plt>:
  4326b0:	ff 25 7a e9 21 00    	jmpq   *0x21e97a(%rip)        # 651030 <std::ostream::operator<<(unsigned long)@GLIBCXX_3.4>
  4326b6:	68 03 00 00 00       	pushq  $0x3
  4326bb:	e9 b0 ff ff ff       	jmpq   432670 <.plt>

00000000004326c0 <std::__throw_bad_alloc()@plt>:
  4326c0:	ff 25 72 e9 21 00    	jmpq   *0x21e972(%rip)        # 651038 <std::__throw_bad_alloc()@GLIBCXX_3.4>
  4326c6:	68 04 00 00 00       	pushq  $0x4
  4326cb:	e9 a0 ff ff ff       	jmpq   432670 <.plt>

00000000004326d0 <std::istream::peek()@plt>:
  4326d0:	ff 25 6a e9 21 00    	jmpq   *0x21e96a(%rip)        # 651040 <std::istream::peek()@GLIBCXX_3.4>
  4326d6:	68 05 00 00 00       	pushq  $0x5
  4326db:	e9 90 ff ff ff       	jmpq   432670 <.plt>

00000000004326e0 <__cxa_begin_catch@plt>:
  4326e0:	ff 25 62 e9 21 00    	jmpq   *0x21e962(%rip)        # 651048 <__cxa_begin_catch@CXXABI_1.3>
  4326e6:	68 06 00 00 00       	pushq  $0x6
  4326eb:	e9 80 ff ff ff       	jmpq   432670 <.plt>

00000000004326f0 <abs@plt>:
  4326f0:	ff 25 5a e9 21 00    	jmpq   *0x21e95a(%rip)        # 651050 <abs@GLIBC_2.2.5>
  4326f6:	68 07 00 00 00       	pushq  $0x7
  4326fb:	e9 70 ff ff ff       	jmpq   432670 <.plt>

0000000000432700 <__cxa_allocate_exception@plt>:
  432700:	ff 25 52 e9 21 00    	jmpq   *0x21e952(%rip)        # 651058 <__cxa_allocate_exception@CXXABI_1.3>
  432706:	68 08 00 00 00       	pushq  $0x8
  43270b:	e9 60 ff ff ff       	jmpq   432670 <.plt>

0000000000432710 <std::__throw_length_error(char const*)@plt>:
  432710:	ff 25 4a e9 21 00    	jmpq   *0x21e94a(%rip)        # 651060 <std::__throw_length_error(char const*)@GLIBCXX_3.4>
  432716:	68 09 00 00 00       	pushq  $0x9
  43271b:	e9 50 ff ff ff       	jmpq   432670 <.plt>

0000000000432720 <memset@plt>:
  432720:	ff 25 42 e9 21 00    	jmpq   *0x21e942(%rip)        # 651068 <memset@GLIBC_2.2.5>
  432726:	68 0a 00 00 00       	pushq  $0xa
  43272b:	e9 40 ff ff ff       	jmpq   432670 <.plt>

0000000000432730 <std::allocator<char>::allocator(std::allocator<char> const&)@plt>:
  432730:	ff 25 3a e9 21 00    	jmpq   *0x21e93a(%rip)        # 651070 <std::allocator<char>::allocator(std::allocator<char> const&)@GLIBCXX_3.4>
  432736:	68 0b 00 00 00       	pushq  $0xb
  43273b:	e9 30 ff ff ff       	jmpq   432670 <.plt>

0000000000432740 <std::istream::ignore(long, int)@plt>:
  432740:	ff 25 32 e9 21 00    	jmpq   *0x21e932(%rip)        # 651078 <std::istream::ignore(long, int)@GLIBCXX_3.4>
  432746:	68 0c 00 00 00       	pushq  $0xc
  43274b:	e9 20 ff ff ff       	jmpq   432670 <.plt>

0000000000432750 <__assert_fail@plt>:
  432750:	ff 25 2a e9 21 00    	jmpq   *0x21e92a(%rip)        # 651080 <__assert_fail@GLIBC_2.2.5>
  432756:	68 0d 00 00 00       	pushq  $0xd
  43275b:	e9 10 ff ff ff       	jmpq   432670 <.plt>

0000000000432760 <std::__throw_logic_error(char const*)@plt>:
  432760:	ff 25 22 e9 21 00    	jmpq   *0x21e922(%rip)        # 651088 <std::__throw_logic_error(char const*)@GLIBCXX_3.4>
  432766:	68 0e 00 00 00       	pushq  $0xe
  43276b:	e9 00 ff ff ff       	jmpq   432670 <.plt>

0000000000432770 <isupper@plt>:
  432770:	ff 25 1a e9 21 00    	jmpq   *0x21e91a(%rip)        # 651090 <isupper@GLIBC_2.2.5>
  432776:	68 0f 00 00 00       	pushq  $0xf
  43277b:	e9 f0 fe ff ff       	jmpq   432670 <.plt>

0000000000432780 <iswspace@plt>:
  432780:	ff 25 12 e9 21 00    	jmpq   *0x21e912(%rip)        # 651098 <iswspace@GLIBC_2.2.5>
  432786:	68 10 00 00 00       	pushq  $0x10
  43278b:	e9 e0 fe ff ff       	jmpq   432670 <.plt>

0000000000432790 <memcpy@plt>:
  432790:	ff 25 0a e9 21 00    	jmpq   *0x21e90a(%rip)        # 6510a0 <memcpy@GLIBC_2.14>
  432796:	68 11 00 00 00       	pushq  $0x11
  43279b:	e9 d0 fe ff ff       	jmpq   432670 <.plt>

00000000004327a0 <__cxa_atexit@plt>:
  4327a0:	ff 25 02 e9 21 00    	jmpq   *0x21e902(%rip)        # 6510a8 <__cxa_atexit@GLIBC_2.2.5>
  4327a6:	68 12 00 00 00       	pushq  $0x12
  4327ab:	e9 c0 fe ff ff       	jmpq   432670 <.plt>

00000000004327b0 <isdigit@plt>:
  4327b0:	ff 25 fa e8 21 00    	jmpq   *0x21e8fa(%rip)        # 6510b0 <isdigit@GLIBC_2.2.5>
  4327b6:	68 13 00 00 00       	pushq  $0x13
  4327bb:	e9 b0 fe ff ff       	jmpq   432670 <.plt>

00000000004327c0 <operator delete(void*)@plt>:
  4327c0:	ff 25 f2 e8 21 00    	jmpq   *0x21e8f2(%rip)        # 6510b8 <operator delete(void*)@GLIBCXX_3.4>
  4327c6:	68 14 00 00 00       	pushq  $0x14
  4327cb:	e9 a0 fe ff ff       	jmpq   432670 <.plt>

00000000004327d0 <std::basic_ios<char, std::char_traits<char> >::widen(char) const@plt>:
  4327d0:	ff 25 ea e8 21 00    	jmpq   *0x21e8ea(%rip)        # 6510c0 <std::basic_ios<char, std::char_traits<char> >::widen(char) const@GLIBCXX_3.4>
  4327d6:	68 15 00 00 00       	pushq  $0x15
  4327db:	e9 90 fe ff ff       	jmpq   432670 <.plt>

00000000004327e0 <std::basic_ostream<char, std::char_traits<char> >& std::operator<< <std::char_traits<char> >(std::basic_ostream<char, std::char_traits<char> >&, char const*)@plt>:
  4327e0:	ff 25 e2 e8 21 00    	jmpq   *0x21e8e2(%rip)        # 6510c8 <std::basic_ostream<char, std::char_traits<char> >& std::operator<< <std::char_traits<char> >(std::basic_ostream<char, std::char_traits<char> >&, char const*)@GLIBCXX_3.4>
  4327e6:	68 16 00 00 00       	pushq  $0x16
  4327eb:	e9 80 fe ff ff       	jmpq   432670 <.plt>

00000000004327f0 <operator new(unsigned long)@plt>:
  4327f0:	ff 25 da e8 21 00    	jmpq   *0x21e8da(%rip)        # 6510d0 <operator new(unsigned long)@GLIBCXX_3.4>
  4327f6:	68 17 00 00 00       	pushq  $0x17
  4327fb:	e9 70 fe ff ff       	jmpq   432670 <.plt>

0000000000432800 <operator delete(void*, unsigned long)@plt>:
  432800:	ff 25 d2 e8 21 00    	jmpq   *0x21e8d2(%rip)        # 6510d8 <operator delete(void*, unsigned long)@CXXABI_1.3.9>
  432806:	68 18 00 00 00       	pushq  $0x18
  43280b:	e9 60 fe ff ff       	jmpq   432670 <.plt>

0000000000432810 <std::allocator<char>::~allocator()@plt>:
  432810:	ff 25 ca e8 21 00    	jmpq   *0x21e8ca(%rip)        # 6510e0 <std::allocator<char>::~allocator()@GLIBCXX_3.4>
  432816:	68 19 00 00 00       	pushq  $0x19
  43281b:	e9 50 fe ff ff       	jmpq   432670 <.plt>

0000000000432820 <__dynamic_cast@plt>:
  432820:	ff 25 c2 e8 21 00    	jmpq   *0x21e8c2(%rip)        # 6510e8 <__dynamic_cast@CXXABI_1.3>
  432826:	68 1a 00 00 00       	pushq  $0x1a
  43282b:	e9 40 fe ff ff       	jmpq   432670 <.plt>

0000000000432830 <std::basic_ostream<char, std::char_traits<char> >& std::__ostream_insert<char, std::char_traits<char> >(std::basic_ostream<char, std::char_traits<char> >&, char const*, long)@plt>:
  432830:	ff 25 ba e8 21 00    	jmpq   *0x21e8ba(%rip)        # 6510f0 <std::basic_ostream<char, std::char_traits<char> >& std::__ostream_insert<char, std::char_traits<char> >(std::basic_ostream<char, std::char_traits<char> >&, char const*, long)@GLIBCXX_3.4.9>
  432836:	68 1b 00 00 00       	pushq  $0x1b
  43283b:	e9 30 fe ff ff       	jmpq   432670 <.plt>

0000000000432840 <std::istream::get()@plt>:
  432840:	ff 25 b2 e8 21 00    	jmpq   *0x21e8b2(%rip)        # 6510f8 <std::istream::get()@GLIBCXX_3.4>
  432846:	68 1c 00 00 00       	pushq  $0x1c
  43284b:	e9 20 fe ff ff       	jmpq   432670 <.plt>

0000000000432850 <std::istream::seekg(std::fpos<__mbstate_t>)@plt>:
  432850:	ff 25 aa e8 21 00    	jmpq   *0x21e8aa(%rip)        # 651100 <std::istream::seekg(std::fpos<__mbstate_t>)@GLIBCXX_3.4>
  432856:	68 1d 00 00 00       	pushq  $0x1d
  43285b:	e9 10 fe ff ff       	jmpq   432670 <.plt>

0000000000432860 <std::basic_fstream<char, std::char_traits<char> >::basic_fstream(char const*, std::_Ios_Openmode)@plt>:
  432860:	ff 25 a2 e8 21 00    	jmpq   *0x21e8a2(%rip)        # 651108 <std::basic_fstream<char, std::char_traits<char> >::basic_fstream(char const*, std::_Ios_Openmode)@GLIBCXX_3.4>
  432866:	68 1e 00 00 00       	pushq  $0x1e
  43286b:	e9 00 fe ff ff       	jmpq   432670 <.plt>

0000000000432870 <std::allocator<char>::allocator(std::allocator<char> const&)@plt>:
  432870:	ff 25 9a e8 21 00    	jmpq   *0x21e89a(%rip)        # 651110 <std::allocator<char>::allocator(std::allocator<char> const&)@GLIBCXX_3.4>
  432876:	68 1f 00 00 00       	pushq  $0x1f
  43287b:	e9 f0 fd ff ff       	jmpq   432670 <.plt>

0000000000432880 <__cxa_rethrow@plt>:
  432880:	ff 25 92 e8 21 00    	jmpq   *0x21e892(%rip)        # 651118 <__cxa_rethrow@CXXABI_1.3>
  432886:	68 20 00 00 00       	pushq  $0x20
  43288b:	e9 e0 fd ff ff       	jmpq   432670 <.plt>

0000000000432890 <std::ios_base::Init::Init()@plt>:
  432890:	ff 25 8a e8 21 00    	jmpq   *0x21e88a(%rip)        # 651120 <std::ios_base::Init::Init()@GLIBCXX_3.4>
  432896:	68 21 00 00 00       	pushq  $0x21
  43289b:	e9 d0 fd ff ff       	jmpq   432670 <.plt>

00000000004328a0 <isalpha@plt>:
  4328a0:	ff 25 82 e8 21 00    	jmpq   *0x21e882(%rip)        # 651128 <isalpha@GLIBC_2.2.5>
  4328a6:	68 22 00 00 00       	pushq  $0x22
  4328ab:	e9 c0 fd ff ff       	jmpq   432670 <.plt>

00000000004328b0 <memmove@plt>:
  4328b0:	ff 25 7a e8 21 00    	jmpq   *0x21e87a(%rip)        # 651130 <memmove@GLIBC_2.2.5>
  4328b6:	68 23 00 00 00       	pushq  $0x23
  4328bb:	e9 b0 fd ff ff       	jmpq   432670 <.plt>

00000000004328c0 <__cxa_end_catch@plt>:
  4328c0:	ff 25 72 e8 21 00    	jmpq   *0x21e872(%rip)        # 651138 <__cxa_end_catch@CXXABI_1.3>
  4328c6:	68 24 00 00 00       	pushq  $0x24
  4328cb:	e9 a0 fd ff ff       	jmpq   432670 <.plt>

00000000004328d0 <__gxx_personality_v0@plt>:
  4328d0:	ff 25 6a e8 21 00    	jmpq   *0x21e86a(%rip)        # 651140 <__gxx_personality_v0@CXXABI_1.3>
  4328d6:	68 25 00 00 00       	pushq  $0x25
  4328db:	e9 90 fd ff ff       	jmpq   432670 <.plt>

00000000004328e0 <std::basic_ios<char, std::char_traits<char> >::clear(std::_Ios_Iostate)@plt>:
  4328e0:	ff 25 62 e8 21 00    	jmpq   *0x21e862(%rip)        # 651148 <std::basic_ios<char, std::char_traits<char> >::clear(std::_Ios_Iostate)@GLIBCXX_3.4>
  4328e6:	68 26 00 00 00       	pushq  $0x26
  4328eb:	e9 80 fd ff ff       	jmpq   432670 <.plt>

00000000004328f0 <__cxa_throw@plt>:
  4328f0:	ff 25 5a e8 21 00    	jmpq   *0x21e85a(%rip)        # 651150 <__cxa_throw@CXXABI_1.3>
  4328f6:	68 27 00 00 00       	pushq  $0x27
  4328fb:	e9 70 fd ff ff       	jmpq   432670 <.plt>

0000000000432900 <std::istream::tellg()@plt>:
  432900:	ff 25 52 e8 21 00    	jmpq   *0x21e852(%rip)        # 651158 <std::istream::tellg()@GLIBCXX_3.4>
  432906:	68 28 00 00 00       	pushq  $0x28
  43290b:	e9 60 fd ff ff       	jmpq   432670 <.plt>

0000000000432910 <_Unwind_Resume@plt>:
  432910:	ff 25 4a e8 21 00    	jmpq   *0x21e84a(%rip)        # 651160 <_Unwind_Resume@GCC_3.0>
  432916:	68 29 00 00 00       	pushq  $0x29
  43291b:	e9 50 fd ff ff       	jmpq   432670 <.plt>

0000000000432920 <std::allocator<char>::allocator()@plt>:
  432920:	ff 25 42 e8 21 00    	jmpq   *0x21e842(%rip)        # 651168 <std::allocator<char>::allocator()@GLIBCXX_3.4>
  432926:	68 2a 00 00 00       	pushq  $0x2a
  43292b:	e9 40 fd ff ff       	jmpq   432670 <.plt>

0000000000432930 <std::ostream::operator<<(long)@plt>:
  432930:	ff 25 3a e8 21 00    	jmpq   *0x21e83a(%rip)        # 651170 <std::ostream::operator<<(long)@GLIBCXX_3.4>
  432936:	68 2b 00 00 00       	pushq  $0x2b
  43293b:	e9 30 fd ff ff       	jmpq   432670 <.plt>

0000000000432940 <std::exception::~exception()@plt>:
  432940:	ff 25 32 e8 21 00    	jmpq   *0x21e832(%rip)        # 651178 <std::exception::~exception()@GLIBCXX_3.4>
  432946:	68 2c 00 00 00       	pushq  $0x2c
  43294b:	e9 20 fd ff ff       	jmpq   432670 <.plt>

0000000000432950 <std::basic_istream<char, std::char_traits<char> >& std::getline<char, std::char_traits<char>, std::allocator<char> >(std::basic_istream<char, std::char_traits<char> >&, std::__cxx11::basic_string<char, std::char_traits<char>, std::allocator<char> >&, char)@plt>:
  432950:	ff 25 2a e8 21 00    	jmpq   *0x21e82a(%rip)        # 651180 <std::basic_istream<char, std::char_traits<char> >& std::getline<char, std::char_traits<char>, std::allocator<char> >(std::basic_istream<char, std::char_traits<char> >&, std::__cxx11::basic_string<char, std::char_traits<char>, std::allocator<char> >&, char)@GLIBCXX_3.4.21>
  432956:	68 2d 00 00 00       	pushq  $0x2d
  43295b:	e9 10 fd ff ff       	jmpq   432670 <.plt>

0000000000432960 <toupper@plt>:
  432960:	ff 25 22 e8 21 00    	jmpq   *0x21e822(%rip)        # 651188 <toupper@GLIBC_2.2.5>
  432966:	68 2e 00 00 00       	pushq  $0x2e
  43296b:	e9 00 fd ff ff       	jmpq   432670 <.plt>

0000000000432970 <__cxa_pure_virtual@plt>:
  432970:	ff 25 1a e8 21 00    	jmpq   *0x21e81a(%rip)        # 651190 <__cxa_pure_virtual@CXXABI_1.3>
  432976:	68 2f 00 00 00       	pushq  $0x2f
  43297b:	e9 f0 fc ff ff       	jmpq   432670 <.plt>

0000000000432980 <std::ios_base::Init::~Init()@plt>:
  432980:	ff 25 12 e8 21 00    	jmpq   *0x21e812(%rip)        # 651198 <std::ios_base::Init::~Init()@GLIBCXX_3.4>
  432986:	68 30 00 00 00       	pushq  $0x30
  43298b:	e9 e0 fc ff ff       	jmpq   432670 <.plt>

Disassembly of section .text:

0000000000432990 <_start>:
  432990:	31 ed                	xor    %ebp,%ebp
  432992:	49 89 d1             	mov    %rdx,%r9
  432995:	5e                   	pop    %rsi
  432996:	48 89 e2             	mov    %rsp,%rdx
  432999:	48 83 e4 f0          	and    $0xfffffffffffffff0,%rsp
  43299d:	50                   	push   %rax
  43299e:	54                   	push   %rsp
  43299f:	49 c7 c0 f0 41 44 00 	mov    $0x4441f0,%r8
  4329a6:	48 c7 c1 80 41 44 00 	mov    $0x444180,%rcx
  4329ad:	48 c7 c7 62 2a 43 00 	mov    $0x432a62,%rdi
  4329b4:	ff 15 36 e6 21 00    	callq  *0x21e636(%rip)        # 650ff0 <__libc_start_main@GLIBC_2.2.5>
  4329ba:	f4                   	hlt    
  4329bb:	0f 1f 44 00 00       	nopl   0x0(%rax,%rax,1)

00000000004329c0 <deregister_tm_clones>:
  4329c0:	b8 40 13 65 00       	mov    $0x651340,%eax
  4329c5:	48 3d 40 13 65 00    	cmp    $0x651340,%rax
  4329cb:	74 13                	je     4329e0 <deregister_tm_clones+0x20>
  4329cd:	b8 00 00 00 00       	mov    $0x0,%eax
  4329d2:	48 85 c0             	test   %rax,%rax
  4329d5:	74 09                	je     4329e0 <deregister_tm_clones+0x20>
  4329d7:	bf 40 13 65 00       	mov    $0x651340,%edi
  4329dc:	ff e0                	jmpq   *%rax
  4329de:	66 90                	xchg   %ax,%ax
  4329e0:	f3 c3                	repz retq 
  4329e2:	0f 1f 40 00          	nopl   0x0(%rax)
  4329e6:	66 2e 0f 1f 84 00 00 	nopw   %cs:0x0(%rax,%rax,1)
  4329ed:	00 00 00 

00000000004329f0 <register_tm_clones>:
  4329f0:	be 40 13 65 00       	mov    $0x651340,%esi
  4329f5:	48 81 ee 40 13 65 00 	sub    $0x651340,%rsi
  4329fc:	48 c1 fe 03          	sar    $0x3,%rsi
  432a00:	48 89 f0             	mov    %rsi,%rax
  432a03:	48 c1 e8 3f          	shr    $0x3f,%rax
  432a07:	48 01 c6             	add    %rax,%rsi
  432a0a:	48 d1 fe             	sar    %rsi
  432a0d:	74 11                	je     432a20 <register_tm_clones+0x30>
  432a0f:	b8 00 00 00 00       	mov    $0x0,%eax
  432a14:	48 85 c0             	test   %rax,%rax
  432a17:	74 07                	je     432a20 <register_tm_clones+0x30>
  432a19:	bf 40 13 65 00       	mov    $0x651340,%edi
  432a1e:	ff e0                	jmpq   *%rax
  432a20:	f3 c3                	repz retq 
  432a22:	0f 1f 40 00          	nopl   0x0(%rax)
  432a26:	66 2e 0f 1f 84 00 00 	nopw   %cs:0x0(%rax,%rax,1)
  432a2d:	00 00 00 

0000000000432a30 <__do_global_dtors_aux>:
  432a30:	80 3d 39 eb 21 00 00 	cmpb   $0x0,0x21eb39(%rip)        # 651570 <completed.7152>
  432a37:	75 17                	jne    432a50 <__do_global_dtors_aux+0x20>
  432a39:	55                   	push   %rbp
  432a3a:	48 89 e5             	mov    %rsp,%rbp
  432a3d:	e8 7e ff ff ff       	callq  4329c0 <deregister_tm_clones>
  432a42:	c6 05 27 eb 21 00 01 	movb   $0x1,0x21eb27(%rip)        # 651570 <completed.7152>
  432a49:	5d                   	pop    %rbp
  432a4a:	c3                   	retq   
  432a4b:	0f 1f 44 00 00       	nopl   0x0(%rax,%rax,1)
  432a50:	f3 c3                	repz retq 
  432a52:	0f 1f 40 00          	nopl   0x0(%rax)
  432a56:	66 2e 0f 1f 84 00 00 	nopw   %cs:0x0(%rax,%rax,1)
  432a5d:	00 00 00 

0000000000432a60 <frame_dummy>:
  432a60:	eb 8e                	jmp    4329f0 <register_tm_clones>

0000000000432a62 <main>:
#include <variant>

#include "Lexer.h"
#include "Parser.h"

int main(int argc, char** argv) {
  432a62:	55                   	push   %rbp
  432a63:	48 89 e5             	mov    %rsp,%rbp
  432a66:	53                   	push   %rbx
  432a67:	48 81 ec c8 03 00 00 	sub    $0x3c8,%rsp
  432a6e:	89 bd 3c fc ff ff    	mov    %edi,-0x3c4(%rbp)
  432a74:	48 89 b5 30 fc ff ff 	mov    %rsi,-0x3d0(%rbp)
  if (argc == 1) {
  432a7b:	83 bd 3c fc ff ff 01 	cmpl   $0x1,-0x3c4(%rbp)
  432a82:	75 19                	jne    432a9d <main+0x3b>
    std::cerr << "Please give a file name\n";
  432a84:	be 08 42 44 00       	mov    $0x444208,%esi
  432a89:	bf 60 14 65 00       	mov    $0x651460,%edi
  432a8e:	e8 4d fd ff ff       	callq  4327e0 <std::basic_ostream<char, std::char_traits<char> >& std::operator<< <std::char_traits<char> >(std::basic_ostream<char, std::char_traits<char> >&, char const*)@plt>
    return -1;
  432a93:	bb ff ff ff ff       	mov    $0xffffffff,%ebx
  432a98:	e9 ed 01 00 00       	jmpq   432c8a <main+0x228>
  }
  const char* fname = argv[1];
  432a9d:	48 8b 85 30 fc ff ff 	mov    -0x3d0(%rbp),%rax
  432aa4:	48 8b 40 08          	mov    0x8(%rax),%rax
  432aa8:	48 89 45 e8          	mov    %rax,-0x18(%rbp)
  std::fstream fh(fname);
  432aac:	be 10 00 00 00       	mov    $0x10,%esi
  432ab1:	bf 08 00 00 00       	mov    $0x8,%edi
  432ab6:	e8 61 02 00 00       	callq  432d1c <std::operator|(std::_Ios_Openmode, std::_Ios_Openmode)>
  432abb:	89 c2                	mov    %eax,%edx
  432abd:	48 8b 4d e8          	mov    -0x18(%rbp),%rcx
  432ac1:	48 8d 85 b0 fd ff ff 	lea    -0x250(%rbp),%rax
  432ac8:	48 89 ce             	mov    %rcx,%rsi
  432acb:	48 89 c7             	mov    %rax,%rdi
  432ace:	e8 8d fd ff ff       	callq  432860 <std::basic_fstream<char, std::char_traits<char> >::basic_fstream(char const*, std::_Ios_Openmode)@plt>
  x666::Parser p(&fh);
  432ad3:	48 8d 95 b0 fd ff ff 	lea    -0x250(%rbp),%rdx
  432ada:	48 8d 85 60 fc ff ff 	lea    -0x3a0(%rbp),%rax
  432ae1:	48 89 d6             	mov    %rdx,%rsi
  432ae4:	48 89 c7             	mov    %rax,%rdi
  432ae7:	e8 76 67 00 00       	callq  439262 <x666::Parser::Parser(std::istream*)>
  p.parse();
  432aec:	48 8d 85 60 fc ff ff 	lea    -0x3a0(%rbp),%rax
  432af3:	48 89 c7             	mov    %rax,%rdi
  432af6:	e8 29 6a 00 00       	callq  439524 <x666::Parser::parse()>
  if (p.errorLog.empty()) {
  432afb:	48 8d 85 60 fc ff ff 	lea    -0x3a0(%rbp),%rax
  432b02:	48 05 08 01 00 00    	add    $0x108,%rax
  432b08:	48 89 c7             	mov    %rax,%rdi
  432b0b:	e8 26 05 00 00       	callq  433036 <std::vector<x666::LexError, std::allocator<x666::LexError> >::empty() const>
  432b10:	84 c0                	test   %al,%al
  432b12:	0f 84 b2 00 00 00    	je     432bca <main+0x168>
    std::cout << "Compilation succeeded\n";
  432b18:	be 21 42 44 00       	mov    $0x444221,%esi
  432b1d:	bf 40 13 65 00       	mov    $0x651340,%edi
  432b22:	e8 b9 fc ff ff       	callq  4327e0 <std::basic_ostream<char, std::char_traits<char> >& std::operator<< <std::char_traits<char> >(std::basic_ostream<char, std::char_traits<char> >&, char const*)@plt>
    for (const x666::ExpressionPtr& ex : p.expressions) {
  432b27:	48 8d 85 60 fc ff ff 	lea    -0x3a0(%rbp),%rax
  432b2e:	48 89 45 d0          	mov    %rax,-0x30(%rbp)
  432b32:	48 8b 45 d0          	mov    -0x30(%rbp),%rax
  432b36:	48 89 c7             	mov    %rax,%rdi
  432b39:	e8 3a 05 00 00       	callq  433078 <std::vector<std::unique_ptr<x666::Expression, std::default_delete<x666::Expression> >, std::allocator<std::unique_ptr<x666::Expression, std::default_delete<x666::Expression> > > >::begin()>
  432b3e:	48 89 85 58 fc ff ff 	mov    %rax,-0x3a8(%rbp)
  432b45:	48 8b 45 d0          	mov    -0x30(%rbp),%rax
  432b49:	48 89 c7             	mov    %rax,%rdi
  432b4c:	e8 4d 05 00 00       	callq  43309e <std::vector<std::unique_ptr<x666::Expression, std::default_delete<x666::Expression> >, std::allocator<std::unique_ptr<x666::Expression, std::default_delete<x666::Expression> > > >::end()>
  432b51:	48 89 85 50 fc ff ff 	mov    %rax,-0x3b0(%rbp)
  432b58:	48 8d 95 50 fc ff ff 	lea    -0x3b0(%rbp),%rdx
  432b5f:	48 8d 85 58 fc ff ff 	lea    -0x3a8(%rbp),%rax
  432b66:	48 89 d6             	mov    %rdx,%rsi
  432b69:	48 89 c7             	mov    %rax,%rdi
  432b6c:	e8 56 05 00 00       	callq  4330c7 <bool __gnu_cxx::operator!=<std::unique_ptr<x666::Expression, std::default_delete<x666::Expression> >*, std::vector<std::unique_ptr<x666::Expression, std::default_delete<x666::Expression> >, std::allocator<std::unique_ptr<x666::Expression, std::default_delete<x666::Expression> > > > >(__gnu_cxx::__normal_iterator<std::unique_ptr<x666::Expression, std::default_delete<x666::Expression> >*, std::vector<std::unique_ptr<x666::Expression, std::default_delete<x666::Expression> >, std::allocator<std::unique_ptr<x666::Expression, std::default_delete<x666::Expression> > > > > const&, __gnu_cxx::__normal_iterator<std::unique_ptr<x666::Expression, std::default_delete<x666::Expression> >*, std::vector<std::unique_ptr<x666::Expression, std::default_delete<x666::Expression> >, std::allocator<std::unique_ptr<x666::Expression, std::default_delete<x666::Expression> > > > > const&)>
  432b71:	84 c0                	test   %al,%al
  432b73:	0f 84 ee 00 00 00    	je     432c67 <main+0x205>
  432b79:	48 8d 85 58 fc ff ff 	lea    -0x3a8(%rbp),%rax
  432b80:	48 89 c7             	mov    %rax,%rdi
  432b83:	e8 9c 05 00 00       	callq  433124 <__gnu_cxx::__normal_iterator<std::unique_ptr<x666::Expression, std::default_delete<x666::Expression> >*, std::vector<std::unique_ptr<x666::Expression, std::default_delete<x666::Expression> >, std::allocator<std::unique_ptr<x666::Expression, std::default_delete<x666::Expression> > > > >::operator*() const>
  432b88:	48 89 45 c8          	mov    %rax,-0x38(%rbp)
      ex->trace();
  432b8c:	48 8b 45 c8          	mov    -0x38(%rbp),%rax
  432b90:	48 89 c7             	mov    %rax,%rdi
  432b93:	e8 9e 05 00 00       	callq  433136 <std::unique_ptr<x666::Expression, std::default_delete<x666::Expression> >::operator->() const>
  432b98:	48 89 c2             	mov    %rax,%rdx
  432b9b:	48 8b 02             	mov    (%rdx),%rax
  432b9e:	48 83 c0 28          	add    $0x28,%rax
  432ba2:	48 8b 00             	mov    (%rax),%rax
  432ba5:	48 89 d7             	mov    %rdx,%rdi
  432ba8:	ff d0                	callq  *%rax
      std::cout << "\n";
  432baa:	be 38 42 44 00       	mov    $0x444238,%esi
  432baf:	bf 40 13 65 00       	mov    $0x651340,%edi
  432bb4:	e8 27 fc ff ff       	callq  4327e0 <std::basic_ostream<char, std::char_traits<char> >& std::operator<< <std::char_traits<char> >(std::basic_ostream<char, std::char_traits<char> >&, char const*)@plt>
    for (const x666::ExpressionPtr& ex : p.expressions) {
  432bb9:	48 8d 85 58 fc ff ff 	lea    -0x3a8(%rbp),%rax
  432bc0:	48 89 c7             	mov    %rax,%rdi
  432bc3:	e8 3c 05 00 00       	callq  433104 <__gnu_cxx::__normal_iterator<std::unique_ptr<x666::Expression, std::default_delete<x666::Expression> >*, std::vector<std::unique_ptr<x666::Expression, std::default_delete<x666::Expression> >, std::allocator<std::unique_ptr<x666::Expression, std::default_delete<x666::Expression> > > > >::operator++()>
  432bc8:	eb 8e                	jmp    432b58 <main+0xf6>
    }
  } else {
    std::cout << "Parsing failed:\n";
  432bca:	be 3a 42 44 00       	mov    $0x44423a,%esi
  432bcf:	bf 40 13 65 00       	mov    $0x651340,%edi
  432bd4:	e8 07 fc ff ff       	callq  4327e0 <std::basic_ostream<char, std::char_traits<char> >& std::operator<< <std::char_traits<char> >(std::basic_ostream<char, std::char_traits<char> >&, char const*)@plt>
    for (const x666::LexError& le : p.errorLog) {
  432bd9:	48 8d 85 60 fc ff ff 	lea    -0x3a0(%rbp),%rax
  432be0:	48 05 08 01 00 00    	add    $0x108,%rax
  432be6:	48 89 45 e0          	mov    %rax,-0x20(%rbp)
  432bea:	48 8b 45 e0          	mov    -0x20(%rbp),%rax
  432bee:	48 89 c7             	mov    %rax,%rdi
  432bf1:	e8 5a 05 00 00       	callq  433150 <std::vector<x666::LexError, std::allocator<x666::LexError> >::begin()>
  432bf6:	48 89 85 48 fc ff ff 	mov    %rax,-0x3b8(%rbp)
  432bfd:	48 8b 45 e0          	mov    -0x20(%rbp),%rax
  432c01:	48 89 c7             	mov    %rax,%rdi
  432c04:	e8 6d 05 00 00       	callq  433176 <std::vector<x666::LexError, std::allocator<x666::LexError> >::end()>
  432c09:	48 89 85 40 fc ff ff 	mov    %rax,-0x3c0(%rbp)
  432c10:	48 8d 95 40 fc ff ff 	lea    -0x3c0(%rbp),%rdx
  432c17:	48 8d 85 48 fc ff ff 	lea    -0x3b8(%rbp),%rax
  432c1e:	48 89 d6             	mov    %rdx,%rsi
  432c21:	48 89 c7             	mov    %rax,%rdi
  432c24:	e8 76 05 00 00       	callq  43319f <bool __gnu_cxx::operator!=<x666::LexError*, std::vector<x666::LexError, std::allocator<x666::LexError> > >(__gnu_cxx::__normal_iterator<x666::LexError*, std::vector<x666::LexError, std::allocator<x666::LexError> > > const&, __gnu_cxx::__normal_iterator<x666::LexError*, std::vector<x666::LexError, std::allocator<x666::LexError> > > const&)>
  432c29:	84 c0                	test   %al,%al
  432c2b:	74 3a                	je     432c67 <main+0x205>
  432c2d:	48 8d 85 48 fc ff ff 	lea    -0x3b8(%rbp),%rax
  432c34:	48 89 c7             	mov    %rax,%rdi
  432c37:	e8 c0 05 00 00       	callq  4331fc <__gnu_cxx::__normal_iterator<x666::LexError*, std::vector<x666::LexError, std::allocator<x666::LexError> > >::operator*() const>
  432c3c:	48 89 45 d8          	mov    %rax,-0x28(%rbp)
      le.print(fh);
  432c40:	48 8d 85 b0 fd ff ff 	lea    -0x250(%rbp),%rax
  432c47:	48 8b 55 d8          	mov    -0x28(%rbp),%rdx
  432c4b:	48 89 c6             	mov    %rax,%rsi
  432c4e:	48 89 d7             	mov    %rdx,%rdi
  432c51:	e8 4e 27 00 00       	callq  4353a4 <x666::LexError::print(std::istream&) const>
    for (const x666::LexError& le : p.errorLog) {
  432c56:	48 8d 85 48 fc ff ff 	lea    -0x3b8(%rbp),%rax
  432c5d:	48 89 c7             	mov    %rax,%rdi
  432c60:	e8 77 05 00 00       	callq  4331dc <__gnu_cxx::__normal_iterator<x666::LexError*, std::vector<x666::LexError, std::allocator<x666::LexError> > >::operator++()>
  432c65:	eb a9                	jmp    432c10 <main+0x1ae>
    }
  }
  return 0;
  432c67:	bb 00 00 00 00       	mov    $0x0,%ebx
  x666::Parser p(&fh);
  432c6c:	48 8d 85 60 fc ff ff 	lea    -0x3a0(%rbp),%rax
  432c73:	48 89 c7             	mov    %rax,%rdi
  432c76:	e8 31 01 00 00       	callq  432dac <x666::Parser::~Parser()>
  std::fstream fh(fname);
  432c7b:	48 8d 85 b0 fd ff ff 	lea    -0x250(%rbp),%rax
  432c82:	48 89 c7             	mov    %rax,%rdi
  432c85:	e8 16 fa ff ff       	callq  4326a0 <std::basic_fstream<char, std::char_traits<char> >::~basic_fstream()@plt>
  432c8a:	89 d8                	mov    %ebx,%eax
  432c8c:	eb 31                	jmp    432cbf <main+0x25d>
  432c8e:	48 89 c3             	mov    %rax,%rbx
  x666::Parser p(&fh);
  432c91:	48 8d 85 60 fc ff ff 	lea    -0x3a0(%rbp),%rax
  432c98:	48 89 c7             	mov    %rax,%rdi
  432c9b:	e8 0c 01 00 00       	callq  432dac <x666::Parser::~Parser()>
  432ca0:	eb 03                	jmp    432ca5 <main+0x243>
  432ca2:	48 89 c3             	mov    %rax,%rbx
  std::fstream fh(fname);
  432ca5:	48 8d 85 b0 fd ff ff 	lea    -0x250(%rbp),%rax
  432cac:	48 89 c7             	mov    %rax,%rdi
  432caf:	e8 ec f9 ff ff       	callq  4326a0 <std::basic_fstream<char, std::char_traits<char> >::~basic_fstream()@plt>
  432cb4:	48 89 d8             	mov    %rbx,%rax
  432cb7:	48 89 c7             	mov    %rax,%rdi
  432cba:	e8 51 fc ff ff       	callq  432910 <_Unwind_Resume@plt>
  432cbf:	48 81 c4 c8 03 00 00 	add    $0x3c8,%rsp
  432cc6:	5b                   	pop    %rbx
  432cc7:	5d                   	pop    %rbp
  432cc8:	c3                   	retq   

0000000000432cc9 <__static_initialization_and_destruction_0(int, int)>:
  432cc9:	55                   	push   %rbp
  432cca:	48 89 e5             	mov    %rsp,%rbp
  432ccd:	48 83 ec 10          	sub    $0x10,%rsp
  432cd1:	89 7d fc             	mov    %edi,-0x4(%rbp)
  432cd4:	89 75 f8             	mov    %esi,-0x8(%rbp)
  432cd7:	83 7d fc 01          	cmpl   $0x1,-0x4(%rbp)
  432cdb:	75 27                	jne    432d04 <__static_initialization_and_destruction_0(int, int)+0x3b>
  432cdd:	81 7d f8 ff ff 00 00 	cmpl   $0xffff,-0x8(%rbp)
  432ce4:	75 1e                	jne    432d04 <__static_initialization_and_destruction_0(int, int)+0x3b>
  extern wostream wclog;	/// Linked to standard error (buffered)
#endif
  //@}

  // For construction of filebuffers for cout, cin, cerr, clog et. al.
  static ios_base::Init __ioinit;
  432ce6:	bf 71 15 65 00       	mov    $0x651571,%edi
  432ceb:	e8 a0 fb ff ff       	callq  432890 <std::ios_base::Init::Init()@plt>
  432cf0:	ba a8 11 65 00       	mov    $0x6511a8,%edx
  432cf5:	be 71 15 65 00       	mov    $0x651571,%esi
  432cfa:	bf 80 29 43 00       	mov    $0x432980,%edi
  432cff:	e8 9c fa ff ff       	callq  4327a0 <__cxa_atexit@plt>
  432d04:	90                   	nop
  432d05:	c9                   	leaveq 
  432d06:	c3                   	retq   

0000000000432d07 <_GLOBAL__sub_I_main>:
  432d07:	55                   	push   %rbp
  432d08:	48 89 e5             	mov    %rsp,%rbp
  432d0b:	be ff ff 00 00       	mov    $0xffff,%esi
  432d10:	bf 01 00 00 00       	mov    $0x1,%edi
  432d15:	e8 af ff ff ff       	callq  432cc9 <__static_initialization_and_destruction_0(int, int)>
  432d1a:	5d                   	pop    %rbp
  432d1b:	c3                   	retq   

0000000000432d1c <std::operator|(std::_Ios_Openmode, std::_Ios_Openmode)>:
  operator&(_Ios_Openmode __a, _Ios_Openmode __b)
  { return _Ios_Openmode(static_cast<int>(__a) & static_cast<int>(__b)); }

  inline _GLIBCXX_CONSTEXPR _Ios_Openmode
  operator|(_Ios_Openmode __a, _Ios_Openmode __b)
  { return _Ios_Openmode(static_cast<int>(__a) | static_cast<int>(__b)); }
  432d1c:	55                   	push   %rbp
  432d1d:	48 89 e5             	mov    %rsp,%rbp
  432d20:	89 7d fc             	mov    %edi,-0x4(%rbp)
  432d23:	89 75 f8             	mov    %esi,-0x8(%rbp)
  432d26:	8b 45 fc             	mov    -0x4(%rbp),%eax
  432d29:	0b 45 f8             	or     -0x8(%rbp),%eax
  432d2c:	5d                   	pop    %rbp
  432d2d:	c3                   	retq   

0000000000432d2e <std::__deque_buf_size(unsigned long)>:
#define _GLIBCXX_DEQUE_BUF_SIZE 512
#endif

  _GLIBCXX_CONSTEXPR inline size_t
  __deque_buf_size(size_t __size)
  { return (__size < _GLIBCXX_DEQUE_BUF_SIZE
  432d2e:	55                   	push   %rbp
  432d2f:	48 89 e5             	mov    %rsp,%rbp
  432d32:	48 89 7d f8          	mov    %rdi,-0x8(%rbp)
	    ? size_t(_GLIBCXX_DEQUE_BUF_SIZE / __size) : size_t(1)); }
  432d36:	48 81 7d f8 ff 01 00 	cmpq   $0x1ff,-0x8(%rbp)
  432d3d:	00 
  432d3e:	77 10                	ja     432d50 <std::__deque_buf_size(unsigned long)+0x22>
  432d40:	b8 00 02 00 00       	mov    $0x200,%eax
  432d45:	ba 00 00 00 00       	mov    $0x0,%edx
  432d4a:	48 f7 75 f8          	divq   -0x8(%rbp)
  432d4e:	eb 05                	jmp    432d55 <std::__deque_buf_size(unsigned long)+0x27>
  432d50:	b8 01 00 00 00       	mov    $0x1,%eax
  432d55:	5d                   	pop    %rbp
  432d56:	c3                   	retq   
  432d57:	90                   	nop

0000000000432d58 <std::stack<std::unique_ptr<x666::Expression, std::default_delete<x666::Expression> >, std::deque<std::unique_ptr<x666::Expression, std::default_delete<x666::Expression> >, std::allocator<std::unique_ptr<x666::Expression, std::default_delete<x666::Expression> > > > >::~stack()>:
   *  which is a typedef for the second Sequence parameter, and @c
   *  push, @c pop, and @c top, which are standard %stack/FILO
   *  operations.
  */
  template<typename _Tp, typename _Sequence = deque<_Tp> >
    class stack
  432d58:	55                   	push   %rbp
  432d59:	48 89 e5             	mov    %rsp,%rbp
  432d5c:	48 83 ec 10          	sub    $0x10,%rsp
  432d60:	48 89 7d f8          	mov    %rdi,-0x8(%rbp)
  432d64:	48 8b 45 f8          	mov    -0x8(%rbp),%rax
  432d68:	48 89 c7             	mov    %rax,%rdi
  432d6b:	e8 38 01 00 00       	callq  432ea8 <std::deque<std::unique_ptr<x666::Expression, std::default_delete<x666::Expression> >, std::allocator<std::unique_ptr<x666::Expression, std::default_delete<x666::Expression> > > >::~deque()>
  432d70:	90                   	nop
  432d71:	c9                   	leaveq 
  432d72:	c3                   	retq   
  432d73:	90                   	nop

0000000000432d74 <std::stack<x666::LineInfo, std::deque<x666::LineInfo, std::allocator<x666::LineInfo> > >::~stack()>:
  432d74:	55                   	push   %rbp
  432d75:	48 89 e5             	mov    %rsp,%rbp
  432d78:	48 83 ec 10          	sub    $0x10,%rsp
  432d7c:	48 89 7d f8          	mov    %rdi,-0x8(%rbp)
  432d80:	48 8b 45 f8          	mov    -0x8(%rbp),%rax
  432d84:	48 89 c7             	mov    %rax,%rdi
  432d87:	e8 8a 01 00 00       	callq  432f16 <std::deque<x666::LineInfo, std::allocator<x666::LineInfo> >::~deque()>
  432d8c:	90                   	nop
  432d8d:	c9                   	leaveq 
  432d8e:	c3                   	retq   
  432d8f:	90                   	nop

0000000000432d90 <std::stack<x666::Parser::BracketEntry, std::deque<x666::Parser::BracketEntry, std::allocator<x666::Parser::BracketEntry> > >::~stack()>:
  432d90:	55                   	push   %rbp
  432d91:	48 89 e5             	mov    %rsp,%rbp
  432d94:	48 83 ec 10          	sub    $0x10,%rsp
  432d98:	48 89 7d f8          	mov    %rdi,-0x8(%rbp)
  432d9c:	48 8b 45 f8          	mov    -0x8(%rbp),%rax
  432da0:	48 89 c7             	mov    %rax,%rdi
  432da3:	e8 dc 01 00 00       	callq  432f84 <std::deque<x666::Parser::BracketEntry, std::allocator<x666::Parser::BracketEntry> >::~deque()>
  432da8:	90                   	nop
  432da9:	c9                   	leaveq 
  432daa:	c3                   	retq   
  432dab:	90                   	nop

0000000000432dac <x666::Parser::~Parser()>:
    void trace() const override;
  };
  /**
   * A parser object.
   */
  class Parser {
  432dac:	55                   	push   %rbp
  432dad:	48 89 e5             	mov    %rsp,%rbp
  432db0:	48 83 ec 10          	sub    $0x10,%rsp
  432db4:	48 89 7d f8          	mov    %rdi,-0x8(%rbp)
  432db8:	48 8b 45 f8          	mov    -0x8(%rbp),%rax
  432dbc:	48 05 08 01 00 00    	add    $0x108,%rax
  432dc2:	48 89 c7             	mov    %rax,%rdi
  432dc5:	e8 28 02 00 00       	callq  432ff2 <std::vector<x666::LexError, std::allocator<x666::LexError> >::~vector()>
  432dca:	48 8b 45 f8          	mov    -0x8(%rbp),%rax
  432dce:	48 05 b8 00 00 00    	add    $0xb8,%rax
  432dd4:	48 89 c7             	mov    %rax,%rdi
  432dd7:	e8 b4 ff ff ff       	callq  432d90 <std::stack<x666::Parser::BracketEntry, std::deque<x666::Parser::BracketEntry, std::allocator<x666::Parser::BracketEntry> > >::~stack()>
  432ddc:	48 8b 45 f8          	mov    -0x8(%rbp),%rax
  432de0:	48 83 c0 68          	add    $0x68,%rax
  432de4:	48 89 c7             	mov    %rax,%rdi
  432de7:	e8 88 ff ff ff       	callq  432d74 <std::stack<x666::LineInfo, std::deque<x666::LineInfo, std::allocator<x666::LineInfo> > >::~stack()>
  432dec:	48 8b 45 f8          	mov    -0x8(%rbp),%rax
  432df0:	48 83 c0 18          	add    $0x18,%rax
  432df4:	48 89 c7             	mov    %rax,%rdi
  432df7:	e8 5c ff ff ff       	callq  432d58 <std::stack<std::unique_ptr<x666::Expression, std::default_delete<x666::Expression> >, std::deque<std::unique_ptr<x666::Expression, std::default_delete<x666::Expression> >, std::allocator<std::unique_ptr<x666::Expression, std::default_delete<x666::Expression> > > > >::~stack()>
  432dfc:	48 8b 45 f8          	mov    -0x8(%rbp),%rax
  432e00:	48 89 c7             	mov    %rax,%rdi
  432e03:	e8 5c 00 00 00       	callq  432e64 <std::vector<std::unique_ptr<x666::Expression, std::default_delete<x666::Expression> >, std::allocator<std::unique_ptr<x666::Expression, std::default_delete<x666::Expression> > > >::~vector()>
  432e08:	90                   	nop
  432e09:	c9                   	leaveq 
  432e0a:	c3                   	retq   
  432e0b:	90                   	nop

0000000000432e0c <std::unique_ptr<x666::Expression, std::default_delete<x666::Expression> >::~unique_ptr()>:
	unique_ptr(auto_ptr<_Up>&& __u) noexcept;
#pragma GCC diagnostic pop
#endif

      /// Destructor, invokes the deleter if the stored pointer is not null.
      ~unique_ptr() noexcept
  432e0c:	55                   	push   %rbp
  432e0d:	48 89 e5             	mov    %rsp,%rbp
  432e10:	48 83 ec 20          	sub    $0x20,%rsp
  432e14:	48 89 7d e8          	mov    %rdi,-0x18(%rbp)
      {
	auto& __ptr = _M_t._M_ptr();
  432e18:	48 8b 45 e8          	mov    -0x18(%rbp),%rax
  432e1c:	48 89 c7             	mov    %rax,%rdi
  432e1f:	e8 04 04 00 00       	callq  433228 <std::__uniq_ptr_impl<x666::Expression, std::default_delete<x666::Expression> >::_M_ptr()>
  432e24:	48 89 45 f8          	mov    %rax,-0x8(%rbp)
	if (__ptr != nullptr)
  432e28:	48 8b 45 f8          	mov    -0x8(%rbp),%rax
  432e2c:	48 8b 00             	mov    (%rax),%rax
  432e2f:	48 85 c0             	test   %rax,%rax
  432e32:	74 21                	je     432e55 <std::unique_ptr<x666::Expression, std::default_delete<x666::Expression> >::~unique_ptr()+0x49>
	  get_deleter()(__ptr);
  432e34:	48 8b 45 e8          	mov    -0x18(%rbp),%rax
  432e38:	48 89 c7             	mov    %rax,%rdi
  432e3b:	e8 ce 03 00 00       	callq  43320e <std::unique_ptr<x666::Expression, std::default_delete<x666::Expression> >::get_deleter()>
  432e40:	48 89 c2             	mov    %rax,%rdx
  432e43:	48 8b 45 f8          	mov    -0x8(%rbp),%rax
  432e47:	48 8b 00             	mov    (%rax),%rax
  432e4a:	48 89 c6             	mov    %rax,%rsi
  432e4d:	48 89 d7             	mov    %rdx,%rdi
  432e50:	e8 ed 03 00 00       	callq  433242 <std::default_delete<x666::Expression>::operator()(x666::Expression*) const>
	__ptr = pointer();
  432e55:	48 8b 45 f8          	mov    -0x8(%rbp),%rax
  432e59:	48 c7 00 00 00 00 00 	movq   $0x0,(%rax)
      }
  432e60:	90                   	nop
  432e61:	c9                   	leaveq 
  432e62:	c3                   	retq   
  432e63:	90                   	nop

0000000000432e64 <std::vector<std::unique_ptr<x666::Expression, std::default_delete<x666::Expression> >, std::allocator<std::unique_ptr<x666::Expression, std::default_delete<x666::Expression> > > >::~vector()>:
       *  The dtor only erases the elements, and note that if the
       *  elements themselves are pointers, the pointed-to memory is
       *  not touched in any way.  Managing the pointer is the user's
       *  responsibility.
       */
      ~vector() _GLIBCXX_NOEXCEPT
  432e64:	55                   	push   %rbp
  432e65:	48 89 e5             	mov    %rsp,%rbp
  432e68:	48 83 ec 10          	sub    $0x10,%rsp
  432e6c:	48 89 7d f8          	mov    %rdi,-0x8(%rbp)
      {
	std::_Destroy(this->_M_impl._M_start, this->_M_impl._M_finish,
		      _M_get_Tp_allocator());
  432e70:	48 8b 45 f8          	mov    -0x8(%rbp),%rax
  432e74:	48 89 c7             	mov    %rax,%rdi
  432e77:	e8 64 04 00 00       	callq  4332e0 <std::_Vector_base<std::unique_ptr<x666::Expression, std::default_delete<x666::Expression> >, std::allocator<std::unique_ptr<x666::Expression, std::default_delete<x666::Expression> > > >::_M_get_Tp_allocator()>
  432e7c:	48 89 c2             	mov    %rax,%rdx
	std::_Destroy(this->_M_impl._M_start, this->_M_impl._M_finish,
  432e7f:	48 8b 45 f8          	mov    -0x8(%rbp),%rax
  432e83:	48 8b 48 08          	mov    0x8(%rax),%rcx
  432e87:	48 8b 45 f8          	mov    -0x8(%rbp),%rax
  432e8b:	48 8b 00             	mov    (%rax),%rax
  432e8e:	48 89 ce             	mov    %rcx,%rsi
  432e91:	48 89 c7             	mov    %rax,%rdi
  432e94:	e8 55 04 00 00       	callq  4332ee <void std::_Destroy<std::unique_ptr<x666::Expression, std::default_delete<x666::Expression> >*, std::unique_ptr<x666::Expression, std::default_delete<x666::Expression> > >(std::unique_ptr<x666::Expression, std::default_delete<x666::Expression> >*, std::unique_ptr<x666::Expression, std::default_delete<x666::Expression> >*, std::allocator<std::unique_ptr<x666::Expression, std::default_delete<x666::Expression> > >&)>
	_GLIBCXX_ASAN_ANNOTATE_BEFORE_DEALLOC;
      }
  432e99:	48 8b 45 f8          	mov    -0x8(%rbp),%rax
  432e9d:	48 89 c7             	mov    %rax,%rdi
  432ea0:	e8 eb 03 00 00       	callq  433290 <std::_Vector_base<std::unique_ptr<x666::Expression, std::default_delete<x666::Expression> >, std::allocator<std::unique_ptr<x666::Expression, std::default_delete<x666::Expression> > > >::~_Vector_base()>
  432ea5:	90                   	nop
  432ea6:	c9                   	leaveq 
  432ea7:	c3                   	retq   

0000000000432ea8 <std::deque<std::unique_ptr<x666::Expression, std::default_delete<x666::Expression> >, std::allocator<std::unique_ptr<x666::Expression, std::default_delete<x666::Expression> > > >::~deque()>:
      /**
       *  The dtor only erases the elements, and note that if the elements
       *  themselves are pointers, the pointed-to memory is not touched in any
       *  way.  Managing the pointer is the user's responsibility.
       */
      ~deque()
  432ea8:	55                   	push   %rbp
  432ea9:	48 89 e5             	mov    %rsp,%rbp
  432eac:	53                   	push   %rbx
  432ead:	48 83 ec 58          	sub    $0x58,%rsp
  432eb1:	48 89 7d a8          	mov    %rdi,-0x58(%rbp)
      { _M_destroy_data(begin(), end(), _M_get_Tp_allocator()); }
  432eb5:	48 8b 45 a8          	mov    -0x58(%rbp),%rax
  432eb9:	48 89 c7             	mov    %rax,%rdi
  432ebc:	e8 37 05 00 00       	callq  4333f8 <std::_Deque_base<std::unique_ptr<x666::Expression, std::default_delete<x666::Expression> >, std::allocator<std::unique_ptr<x666::Expression, std::default_delete<x666::Expression> > > >::_M_get_Tp_allocator()>
  432ec1:	48 89 c3             	mov    %rax,%rbx
  432ec4:	48 8d 45 b0          	lea    -0x50(%rbp),%rax
  432ec8:	48 8b 55 a8          	mov    -0x58(%rbp),%rdx
  432ecc:	48 89 d6             	mov    %rdx,%rsi
  432ecf:	48 89 c7             	mov    %rax,%rdi
  432ed2:	e8 f3 04 00 00       	callq  4333ca <std::deque<std::unique_ptr<x666::Expression, std::default_delete<x666::Expression> >, std::allocator<std::unique_ptr<x666::Expression, std::default_delete<x666::Expression> > > >::end()>
  432ed7:	48 8d 45 d0          	lea    -0x30(%rbp),%rax
  432edb:	48 8b 55 a8          	mov    -0x58(%rbp),%rdx
  432edf:	48 89 d6             	mov    %rdx,%rsi
  432ee2:	48 89 c7             	mov    %rax,%rdi
  432ee5:	e8 b2 04 00 00       	callq  43339c <std::deque<std::unique_ptr<x666::Expression, std::default_delete<x666::Expression> >, std::allocator<std::unique_ptr<x666::Expression, std::default_delete<x666::Expression> > > >::begin()>
  432eea:	48 8d 55 b0          	lea    -0x50(%rbp),%rdx
  432eee:	48 8d 45 d0          	lea    -0x30(%rbp),%rax
  432ef2:	48 8b 7d a8          	mov    -0x58(%rbp),%rdi
  432ef6:	48 89 d9             	mov    %rbx,%rcx
  432ef9:	48 89 c6             	mov    %rax,%rsi
  432efc:	e8 05 05 00 00       	callq  433406 <std::deque<std::unique_ptr<x666::Expression, std::default_delete<x666::Expression> >, std::allocator<std::unique_ptr<x666::Expression, std::default_delete<x666::Expression> > > >::_M_destroy_data(std::_Deque_iterator<std::unique_ptr<x666::Expression, std::default_delete<x666::Expression> >, std::unique_ptr<x666::Expression, std::default_delete<x666::Expression> >&, std::unique_ptr<x666::Expression, std::default_delete<x666::Expression> >*>, std::_Deque_iterator<std::unique_ptr<x666::Expression, std::default_delete<x666::Expression> >, std::unique_ptr<x666::Expression, std::default_delete<x666::Expression> >&, std::unique_ptr<x666::Expression, std::default_delete<x666::Expression> >*>, std::allocator<std::unique_ptr<x666::Expression, std::default_delete<x666::Expression> > > const&)>
  432f01:	48 8b 45 a8          	mov    -0x58(%rbp),%rax
  432f05:	48 89 c7             	mov    %rax,%rdi
  432f08:	e8 27 04 00 00       	callq  433334 <std::_Deque_base<std::unique_ptr<x666::Expression, std::default_delete<x666::Expression> >, std::allocator<std::unique_ptr<x666::Expression, std::default_delete<x666::Expression> > > >::~_Deque_base()>
  432f0d:	90                   	nop
  432f0e:	48 83 c4 58          	add    $0x58,%rsp
  432f12:	5b                   	pop    %rbx
  432f13:	5d                   	pop    %rbp
  432f14:	c3                   	retq   
  432f15:	90                   	nop

0000000000432f16 <std::deque<x666::LineInfo, std::allocator<x666::LineInfo> >::~deque()>:
      ~deque()
  432f16:	55                   	push   %rbp
  432f17:	48 89 e5             	mov    %rsp,%rbp
  432f1a:	53                   	push   %rbx
  432f1b:	48 83 ec 58          	sub    $0x58,%rsp
  432f1f:	48 89 7d a8          	mov    %rdi,-0x58(%rbp)
      { _M_destroy_data(begin(), end(), _M_get_Tp_allocator()); }
  432f23:	48 8b 45 a8          	mov    -0x58(%rbp),%rax
  432f27:	48 89 c7             	mov    %rax,%rdi
  432f2a:	e8 0f 06 00 00       	callq  43353e <std::_Deque_base<x666::LineInfo, std::allocator<x666::LineInfo> >::_M_get_Tp_allocator()>
  432f2f:	48 89 c3             	mov    %rax,%rbx
  432f32:	48 8d 45 b0          	lea    -0x50(%rbp),%rax
  432f36:	48 8b 55 a8          	mov    -0x58(%rbp),%rdx
  432f3a:	48 89 d6             	mov    %rdx,%rsi
  432f3d:	48 89 c7             	mov    %rax,%rdi
  432f40:	e8 cb 05 00 00       	callq  433510 <std::deque<x666::LineInfo, std::allocator<x666::LineInfo> >::end()>
  432f45:	48 8d 45 d0          	lea    -0x30(%rbp),%rax
  432f49:	48 8b 55 a8          	mov    -0x58(%rbp),%rdx
  432f4d:	48 89 d6             	mov    %rdx,%rsi
  432f50:	48 89 c7             	mov    %rax,%rdi
  432f53:	e8 8a 05 00 00       	callq  4334e2 <std::deque<x666::LineInfo, std::allocator<x666::LineInfo> >::begin()>
  432f58:	48 8d 55 b0          	lea    -0x50(%rbp),%rdx
  432f5c:	48 8d 45 d0          	lea    -0x30(%rbp),%rax
  432f60:	48 8b 7d a8          	mov    -0x58(%rbp),%rdi
  432f64:	48 89 d9             	mov    %rbx,%rcx
  432f67:	48 89 c6             	mov    %rax,%rsi
  432f6a:	e8 dd 05 00 00       	callq  43354c <std::deque<x666::LineInfo, std::allocator<x666::LineInfo> >::_M_destroy_data(std::_Deque_iterator<x666::LineInfo, x666::LineInfo&, x666::LineInfo*>, std::_Deque_iterator<x666::LineInfo, x666::LineInfo&, x666::LineInfo*>, std::allocator<x666::LineInfo> const&)>
  432f6f:	48 8b 45 a8          	mov    -0x58(%rbp),%rax
  432f73:	48 89 c7             	mov    %rax,%rdi
  432f76:	e8 ff 04 00 00       	callq  43347a <std::_Deque_base<x666::LineInfo, std::allocator<x666::LineInfo> >::~_Deque_base()>
  432f7b:	90                   	nop
  432f7c:	48 83 c4 58          	add    $0x58,%rsp
  432f80:	5b                   	pop    %rbx
  432f81:	5d                   	pop    %rbp
  432f82:	c3                   	retq   
  432f83:	90                   	nop

0000000000432f84 <std::deque<x666::Parser::BracketEntry, std::allocator<x666::Parser::BracketEntry> >::~deque()>:
      ~deque()
  432f84:	55                   	push   %rbp
  432f85:	48 89 e5             	mov    %rsp,%rbp
  432f88:	53                   	push   %rbx
  432f89:	48 83 ec 58          	sub    $0x58,%rsp
  432f8d:	48 89 7d a8          	mov    %rdi,-0x58(%rbp)
      { _M_destroy_data(begin(), end(), _M_get_Tp_allocator()); }
  432f91:	48 8b 45 a8          	mov    -0x58(%rbp),%rax
  432f95:	48 89 c7             	mov    %rax,%rdi
  432f98:	e8 a7 06 00 00       	callq  433644 <std::_Deque_base<x666::Parser::BracketEntry, std::allocator<x666::Parser::BracketEntry> >::_M_get_Tp_allocator()>
  432f9d:	48 89 c3             	mov    %rax,%rbx
  432fa0:	48 8d 45 b0          	lea    -0x50(%rbp),%rax
  432fa4:	48 8b 55 a8          	mov    -0x58(%rbp),%rdx
  432fa8:	48 89 d6             	mov    %rdx,%rsi
  432fab:	48 89 c7             	mov    %rax,%rdi
  432fae:	e8 63 06 00 00       	callq  433616 <std::deque<x666::Parser::BracketEntry, std::allocator<x666::Parser::BracketEntry> >::end()>
  432fb3:	48 8d 45 d0          	lea    -0x30(%rbp),%rax
  432fb7:	48 8b 55 a8          	mov    -0x58(%rbp),%rdx
  432fbb:	48 89 d6             	mov    %rdx,%rsi
  432fbe:	48 89 c7             	mov    %rax,%rdi
  432fc1:	e8 22 06 00 00       	callq  4335e8 <std::deque<x666::Parser::BracketEntry, std::allocator<x666::Parser::BracketEntry> >::begin()>
  432fc6:	48 8d 55 b0          	lea    -0x50(%rbp),%rdx
  432fca:	48 8d 45 d0          	lea    -0x30(%rbp),%rax
  432fce:	48 8b 7d a8          	mov    -0x58(%rbp),%rdi
  432fd2:	48 89 d9             	mov    %rbx,%rcx
  432fd5:	48 89 c6             	mov    %rax,%rsi
  432fd8:	e8 75 06 00 00       	callq  433652 <std::deque<x666::Parser::BracketEntry, std::allocator<x666::Parser::BracketEntry> >::_M_destroy_data(std::_Deque_iterator<x666::Parser::BracketEntry, x666::Parser::BracketEntry&, x666::Parser::BracketEntry*>, std::_Deque_iterator<x666::Parser::BracketEntry, x666::Parser::BracketEntry&, x666::Parser::BracketEntry*>, std::allocator<x666::Parser::BracketEntry> const&)>
  432fdd:	48 8b 45 a8          	mov    -0x58(%rbp),%rax
  432fe1:	48 89 c7             	mov    %rax,%rdi
  432fe4:	e8 97 05 00 00       	callq  433580 <std::_Deque_base<x666::Parser::BracketEntry, std::allocator<x666::Parser::BracketEntry> >::~_Deque_base()>
  432fe9:	90                   	nop
  432fea:	48 83 c4 58          	add    $0x58,%rsp
  432fee:	5b                   	pop    %rbx
  432fef:	5d                   	pop    %rbp
  432ff0:	c3                   	retq   
  432ff1:	90                   	nop

0000000000432ff2 <std::vector<x666::LexError, std::allocator<x666::LexError> >::~vector()>:
      ~vector() _GLIBCXX_NOEXCEPT
  432ff2:	55                   	push   %rbp
  432ff3:	48 89 e5             	mov    %rsp,%rbp
  432ff6:	48 83 ec 10          	sub    $0x10,%rsp
  432ffa:	48 89 7d f8          	mov    %rdi,-0x8(%rbp)
		      _M_get_Tp_allocator());
  432ffe:	48 8b 45 f8          	mov    -0x8(%rbp),%rax
  433002:	48 89 c7             	mov    %rax,%rdi
  433005:	e8 de 06 00 00       	callq  4336e8 <std::_Vector_base<x666::LexError, std::allocator<x666::LexError> >::_M_get_Tp_allocator()>
  43300a:	48 89 c2             	mov    %rax,%rdx
	std::_Destroy(this->_M_impl._M_start, this->_M_impl._M_finish,
  43300d:	48 8b 45 f8          	mov    -0x8(%rbp),%rax
  433011:	48 8b 48 08          	mov    0x8(%rax),%rcx
  433015:	48 8b 45 f8          	mov    -0x8(%rbp),%rax
  433019:	48 8b 00             	mov    (%rax),%rax
  43301c:	48 89 ce             	mov    %rcx,%rsi
  43301f:	48 89 c7             	mov    %rax,%rdi
  433022:	e8 cf 06 00 00       	callq  4336f6 <void std::_Destroy<x666::LexError*, x666::LexError>(x666::LexError*, x666::LexError*, std::allocator<x666::LexError>&)>
      }
  433027:	48 8b 45 f8          	mov    -0x8(%rbp),%rax
  43302b:	48 89 c7             	mov    %rax,%rdi
  43302e:	e8 53 06 00 00       	callq  433686 <std::_Vector_base<x666::LexError, std::allocator<x666::LexError> >::~_Vector_base()>
  433033:	90                   	nop
  433034:	c9                   	leaveq 
  433035:	c3                   	retq   

0000000000433036 <std::vector<x666::LexError, std::allocator<x666::LexError> >::empty() const>:
      /**
       *  Returns true if the %vector is empty.  (Thus begin() would
       *  equal end().)
       */
      bool
      empty() const _GLIBCXX_NOEXCEPT
  433036:	55                   	push   %rbp
  433037:	48 89 e5             	mov    %rsp,%rbp
  43303a:	48 83 ec 20          	sub    $0x20,%rsp
  43303e:	48 89 7d e8          	mov    %rdi,-0x18(%rbp)
      { return begin() == end(); }
  433042:	48 8b 45 e8          	mov    -0x18(%rbp),%rax
  433046:	48 89 c7             	mov    %rax,%rdi
  433049:	e8 02 07 00 00       	callq  433750 <std::vector<x666::LexError, std::allocator<x666::LexError> >::end() const>
  43304e:	48 89 45 f0          	mov    %rax,-0x10(%rbp)
  433052:	48 8b 45 e8          	mov    -0x18(%rbp),%rax
  433056:	48 89 c7             	mov    %rax,%rdi
  433059:	e8 c2 06 00 00       	callq  433720 <std::vector<x666::LexError, std::allocator<x666::LexError> >::begin() const>
  43305e:	48 89 45 f8          	mov    %rax,-0x8(%rbp)
  433062:	48 8d 55 f0          	lea    -0x10(%rbp),%rdx
  433066:	48 8d 45 f8          	lea    -0x8(%rbp),%rax
  43306a:	48 89 d6             	mov    %rdx,%rsi
  43306d:	48 89 c7             	mov    %rax,%rdi
  433070:	e8 0c 07 00 00       	callq  433781 <bool __gnu_cxx::operator==<x666::LexError const*, std::vector<x666::LexError, std::allocator<x666::LexError> > >(__gnu_cxx::__normal_iterator<x666::LexError const*, std::vector<x666::LexError, std::allocator<x666::LexError> > > const&, __gnu_cxx::__normal_iterator<x666::LexError const*, std::vector<x666::LexError, std::allocator<x666::LexError> > > const&)>
  433075:	c9                   	leaveq 
  433076:	c3                   	retq   
  433077:	90                   	nop

0000000000433078 <std::vector<std::unique_ptr<x666::Expression, std::default_delete<x666::Expression> >, std::allocator<std::unique_ptr<x666::Expression, std::default_delete<x666::Expression> > > >::begin()>:
      begin() _GLIBCXX_NOEXCEPT
  433078:	55                   	push   %rbp
  433079:	48 89 e5             	mov    %rsp,%rbp
  43307c:	48 83 ec 20          	sub    $0x20,%rsp
  433080:	48 89 7d e8          	mov    %rdi,-0x18(%rbp)
      { return iterator(this->_M_impl._M_start); }
  433084:	48 8b 55 e8          	mov    -0x18(%rbp),%rdx
  433088:	48 8d 45 f8          	lea    -0x8(%rbp),%rax
  43308c:	48 89 d6             	mov    %rdx,%rsi
  43308f:	48 89 c7             	mov    %rax,%rdi
  433092:	e8 27 07 00 00       	callq  4337be <__gnu_cxx::__normal_iterator<std::unique_ptr<x666::Expression, std::default_delete<x666::Expression> >*, std::vector<std::unique_ptr<x666::Expression, std::default_delete<x666::Expression> >, std::allocator<std::unique_ptr<x666::Expression, std::default_delete<x666::Expression> > > > >::__normal_iterator(std::unique_ptr<x666::Expression, std::default_delete<x666::Expression> >* const&)>
  433097:	48 8b 45 f8          	mov    -0x8(%rbp),%rax
  43309b:	c9                   	leaveq 
  43309c:	c3                   	retq   
  43309d:	90                   	nop

000000000043309e <std::vector<std::unique_ptr<x666::Expression, std::default_delete<x666::Expression> >, std::allocator<std::unique_ptr<x666::Expression, std::default_delete<x666::Expression> > > >::end()>:
      end() _GLIBCXX_NOEXCEPT
  43309e:	55                   	push   %rbp
  43309f:	48 89 e5             	mov    %rsp,%rbp
  4330a2:	48 83 ec 20          	sub    $0x20,%rsp
  4330a6:	48 89 7d e8          	mov    %rdi,-0x18(%rbp)
      { return iterator(this->_M_impl._M_finish); }
  4330aa:	48 8b 45 e8          	mov    -0x18(%rbp),%rax
  4330ae:	48 8d 50 08          	lea    0x8(%rax),%rdx
  4330b2:	48 8d 45 f8          	lea    -0x8(%rbp),%rax
  4330b6:	48 89 d6             	mov    %rdx,%rsi
  4330b9:	48 89 c7             	mov    %rax,%rdi
  4330bc:	e8 fd 06 00 00       	callq  4337be <__gnu_cxx::__normal_iterator<std::unique_ptr<x666::Expression, std::default_delete<x666::Expression> >*, std::vector<std::unique_ptr<x666::Expression, std::default_delete<x666::Expression> >, std::allocator<std::unique_ptr<x666::Expression, std::default_delete<x666::Expression> > > > >::__normal_iterator(std::unique_ptr<x666::Expression, std::default_delete<x666::Expression> >* const&)>
  4330c1:	48 8b 45 f8          	mov    -0x8(%rbp),%rax
  4330c5:	c9                   	leaveq 
  4330c6:	c3                   	retq   

00000000004330c7 <bool __gnu_cxx::operator!=<std::unique_ptr<x666::Expression, std::default_delete<x666::Expression> >*, std::vector<std::unique_ptr<x666::Expression, std::default_delete<x666::Expression> >, std::allocator<std::unique_ptr<x666::Expression, std::default_delete<x666::Expression> > > > >(__gnu_cxx::__normal_iterator<std::unique_ptr<x666::Expression, std::default_delete<x666::Expression> >*, std::vector<std::unique_ptr<x666::Expression, std::default_delete<x666::Expression> >, std::allocator<std::unique_ptr<x666::Expression, std::default_delete<x666::Expression> > > > > const&, __gnu_cxx::__normal_iterator<std::unique_ptr<x666::Expression, std::default_delete<x666::Expression> >*, std::vector<std::unique_ptr<x666::Expression, std::default_delete<x666::Expression> >, std::allocator<std::unique_ptr<x666::Expression, std::default_delete<x666::Expression> > > > > const&)>:
    _GLIBCXX_NOEXCEPT
    { return __lhs.base() != __rhs.base(); }

  template<typename _Iterator, typename _Container>
    inline bool
    operator!=(const __normal_iterator<_Iterator, _Container>& __lhs,
  4330c7:	55                   	push   %rbp
  4330c8:	48 89 e5             	mov    %rsp,%rbp
  4330cb:	53                   	push   %rbx
  4330cc:	48 83 ec 18          	sub    $0x18,%rsp
  4330d0:	48 89 7d e8          	mov    %rdi,-0x18(%rbp)
  4330d4:	48 89 75 e0          	mov    %rsi,-0x20(%rbp)
	       const __normal_iterator<_Iterator, _Container>& __rhs)
    _GLIBCXX_NOEXCEPT
    { return __lhs.base() != __rhs.base(); }
  4330d8:	48 8b 45 e8          	mov    -0x18(%rbp),%rax
  4330dc:	48 89 c7             	mov    %rax,%rdi
  4330df:	e8 f8 06 00 00       	callq  4337dc <__gnu_cxx::__normal_iterator<std::unique_ptr<x666::Expression, std::default_delete<x666::Expression> >*, std::vector<std::unique_ptr<x666::Expression, std::default_delete<x666::Expression> >, std::allocator<std::unique_ptr<x666::Expression, std::default_delete<x666::Expression> > > > >::base() const>
  4330e4:	48 8b 18             	mov    (%rax),%rbx
  4330e7:	48 8b 45 e0          	mov    -0x20(%rbp),%rax
  4330eb:	48 89 c7             	mov    %rax,%rdi
  4330ee:	e8 e9 06 00 00       	callq  4337dc <__gnu_cxx::__normal_iterator<std::unique_ptr<x666::Expression, std::default_delete<x666::Expression> >*, std::vector<std::unique_ptr<x666::Expression, std::default_delete<x666::Expression> >, std::allocator<std::unique_ptr<x666::Expression, std::default_delete<x666::Expression> > > > >::base() const>
  4330f3:	48 8b 00             	mov    (%rax),%rax
  4330f6:	48 39 c3             	cmp    %rax,%rbx
  4330f9:	0f 95 c0             	setne  %al
  4330fc:	48 83 c4 18          	add    $0x18,%rsp
  433100:	5b                   	pop    %rbx
  433101:	5d                   	pop    %rbp
  433102:	c3                   	retq   
  433103:	90                   	nop

0000000000433104 <__gnu_cxx::__normal_iterator<std::unique_ptr<x666::Expression, std::default_delete<x666::Expression> >*, std::vector<std::unique_ptr<x666::Expression, std::default_delete<x666::Expression> >, std::allocator<std::unique_ptr<x666::Expression, std::default_delete<x666::Expression> > > > >::operator++()>:
      operator++() _GLIBCXX_NOEXCEPT
  433104:	55                   	push   %rbp
  433105:	48 89 e5             	mov    %rsp,%rbp
  433108:	48 89 7d f8          	mov    %rdi,-0x8(%rbp)
	++_M_current;
  43310c:	48 8b 45 f8          	mov    -0x8(%rbp),%rax
  433110:	48 8b 00             	mov    (%rax),%rax
  433113:	48 8d 50 08          	lea    0x8(%rax),%rdx
  433117:	48 8b 45 f8          	mov    -0x8(%rbp),%rax
  43311b:	48 89 10             	mov    %rdx,(%rax)
	return *this;
  43311e:	48 8b 45 f8          	mov    -0x8(%rbp),%rax
      }
  433122:	5d                   	pop    %rbp
  433123:	c3                   	retq   

0000000000433124 <__gnu_cxx::__normal_iterator<std::unique_ptr<x666::Expression, std::default_delete<x666::Expression> >*, std::vector<std::unique_ptr<x666::Expression, std::default_delete<x666::Expression> >, std::allocator<std::unique_ptr<x666::Expression, std::default_delete<x666::Expression> > > > >::operator*() const>:
      operator*() const _GLIBCXX_NOEXCEPT
  433124:	55                   	push   %rbp
  433125:	48 89 e5             	mov    %rsp,%rbp
  433128:	48 89 7d f8          	mov    %rdi,-0x8(%rbp)
      { return *_M_current; }
  43312c:	48 8b 45 f8          	mov    -0x8(%rbp),%rax
  433130:	48 8b 00             	mov    (%rax),%rax
  433133:	5d                   	pop    %rbp
  433134:	c3                   	retq   
  433135:	90                   	nop

0000000000433136 <std::unique_ptr<x666::Expression, std::default_delete<x666::Expression> >::operator->() const>:
	return *get();
      }

      /// Return the stored pointer.
      pointer
      operator->() const noexcept
  433136:	55                   	push   %rbp
  433137:	48 89 e5             	mov    %rsp,%rbp
  43313a:	48 83 ec 10          	sub    $0x10,%rsp
  43313e:	48 89 7d f8          	mov    %rdi,-0x8(%rbp)
      {
	_GLIBCXX_DEBUG_PEDASSERT(get() != pointer());
	return get();
  433142:	48 8b 45 f8          	mov    -0x8(%rbp),%rax
  433146:	48 89 c7             	mov    %rax,%rdi
  433149:	e8 9c 06 00 00       	callq  4337ea <std::unique_ptr<x666::Expression, std::default_delete<x666::Expression> >::get() const>
      }
  43314e:	c9                   	leaveq 
  43314f:	c3                   	retq   

0000000000433150 <std::vector<x666::LexError, std::allocator<x666::LexError> >::begin()>:
      begin() _GLIBCXX_NOEXCEPT
  433150:	55                   	push   %rbp
  433151:	48 89 e5             	mov    %rsp,%rbp
  433154:	48 83 ec 20          	sub    $0x20,%rsp
  433158:	48 89 7d e8          	mov    %rdi,-0x18(%rbp)
      { return iterator(this->_M_impl._M_start); }
  43315c:	48 8b 55 e8          	mov    -0x18(%rbp),%rdx
  433160:	48 8d 45 f8          	lea    -0x8(%rbp),%rax
  433164:	48 89 d6             	mov    %rdx,%rsi
  433167:	48 89 c7             	mov    %rax,%rdi
  43316a:	e8 95 06 00 00       	callq  433804 <__gnu_cxx::__normal_iterator<x666::LexError*, std::vector<x666::LexError, std::allocator<x666::LexError> > >::__normal_iterator(x666::LexError* const&)>
  43316f:	48 8b 45 f8          	mov    -0x8(%rbp),%rax
  433173:	c9                   	leaveq 
  433174:	c3                   	retq   
  433175:	90                   	nop

0000000000433176 <std::vector<x666::LexError, std::allocator<x666::LexError> >::end()>:
      end() _GLIBCXX_NOEXCEPT
  433176:	55                   	push   %rbp
  433177:	48 89 e5             	mov    %rsp,%rbp
  43317a:	48 83 ec 20          	sub    $0x20,%rsp
  43317e:	48 89 7d e8          	mov    %rdi,-0x18(%rbp)
      { return iterator(this->_M_impl._M_finish); }
  433182:	48 8b 45 e8          	mov    -0x18(%rbp),%rax
  433186:	48 8d 50 08          	lea    0x8(%rax),%rdx
  43318a:	48 8d 45 f8          	lea    -0x8(%rbp),%rax
  43318e:	48 89 d6             	mov    %rdx,%rsi
  433191:	48 89 c7             	mov    %rax,%rdi
  433194:	e8 6b 06 00 00       	callq  433804 <__gnu_cxx::__normal_iterator<x666::LexError*, std::vector<x666::LexError, std::allocator<x666::LexError> > >::__normal_iterator(x666::LexError* const&)>
  433199:	48 8b 45 f8          	mov    -0x8(%rbp),%rax
  43319d:	c9                   	leaveq 
  43319e:	c3                   	retq   

000000000043319f <bool __gnu_cxx::operator!=<x666::LexError*, std::vector<x666::LexError, std::allocator<x666::LexError> > >(__gnu_cxx::__normal_iterator<x666::LexError*, std::vector<x666::LexError, std::allocator<x666::LexError> > > const&, __gnu_cxx::__normal_iterator<x666::LexError*, std::vector<x666::LexError, std::allocator<x666::LexError> > > const&)>:
    operator!=(const __normal_iterator<_Iterator, _Container>& __lhs,
  43319f:	55                   	push   %rbp
  4331a0:	48 89 e5             	mov    %rsp,%rbp
  4331a3:	53                   	push   %rbx
  4331a4:	48 83 ec 18          	sub    $0x18,%rsp
  4331a8:	48 89 7d e8          	mov    %rdi,-0x18(%rbp)
  4331ac:	48 89 75 e0          	mov    %rsi,-0x20(%rbp)
    { return __lhs.base() != __rhs.base(); }
  4331b0:	48 8b 45 e8          	mov    -0x18(%rbp),%rax
  4331b4:	48 89 c7             	mov    %rax,%rdi
  4331b7:	e8 66 06 00 00       	callq  433822 <__gnu_cxx::__normal_iterator<x666::LexError*, std::vector<x666::LexError, std::allocator<x666::LexError> > >::base() const>
  4331bc:	48 8b 18             	mov    (%rax),%rbx
  4331bf:	48 8b 45 e0          	mov    -0x20(%rbp),%rax
  4331c3:	48 89 c7             	mov    %rax,%rdi
  4331c6:	e8 57 06 00 00       	callq  433822 <__gnu_cxx::__normal_iterator<x666::LexError*, std::vector<x666::LexError, std::allocator<x666::LexError> > >::base() const>
  4331cb:	48 8b 00             	mov    (%rax),%rax
  4331ce:	48 39 c3             	cmp    %rax,%rbx
  4331d1:	0f 95 c0             	setne  %al
  4331d4:	48 83 c4 18          	add    $0x18,%rsp
  4331d8:	5b                   	pop    %rbx
  4331d9:	5d                   	pop    %rbp
  4331da:	c3                   	retq   
  4331db:	90                   	nop

00000000004331dc <__gnu_cxx::__normal_iterator<x666::LexError*, std::vector<x666::LexError, std::allocator<x666::LexError> > >::operator++()>:
      operator++() _GLIBCXX_NOEXCEPT
  4331dc:	55                   	push   %rbp
  4331dd:	48 89 e5             	mov    %rsp,%rbp
  4331e0:	48 89 7d f8          	mov    %rdi,-0x8(%rbp)
	++_M_current;
  4331e4:	48 8b 45 f8          	mov    -0x8(%rbp),%rax
  4331e8:	48 8b 00             	mov    (%rax),%rax
  4331eb:	48 8d 50 28          	lea    0x28(%rax),%rdx
  4331ef:	48 8b 45 f8          	mov    -0x8(%rbp),%rax
  4331f3:	48 89 10             	mov    %rdx,(%rax)
	return *this;
  4331f6:	48 8b 45 f8          	mov    -0x8(%rbp),%rax
      }
  4331fa:	5d                   	pop    %rbp
  4331fb:	c3                   	retq   

00000000004331fc <__gnu_cxx::__normal_iterator<x666::LexError*, std::vector<x666::LexError, std::allocator<x666::LexError> > >::operator*() const>:
      operator*() const _GLIBCXX_NOEXCEPT
  4331fc:	55                   	push   %rbp
  4331fd:	48 89 e5             	mov    %rsp,%rbp
  433200:	48 89 7d f8          	mov    %rdi,-0x8(%rbp)
      { return *_M_current; }
  433204:	48 8b 45 f8          	mov    -0x8(%rbp),%rax
  433208:	48 8b 00             	mov    (%rax),%rax
  43320b:	5d                   	pop    %rbp
  43320c:	c3                   	retq   
  43320d:	90                   	nop

000000000043320e <std::unique_ptr<x666::Expression, std::default_delete<x666::Expression> >::get_deleter()>:
      get() const noexcept
      { return _M_t._M_ptr(); }

      /// Return a reference to the stored deleter.
      deleter_type&
      get_deleter() noexcept
  43320e:	55                   	push   %rbp
  43320f:	48 89 e5             	mov    %rsp,%rbp
  433212:	48 83 ec 10          	sub    $0x10,%rsp
  433216:	48 89 7d f8          	mov    %rdi,-0x8(%rbp)
      { return _M_t._M_deleter(); }
  43321a:	48 8b 45 f8          	mov    -0x8(%rbp),%rax
  43321e:	48 89 c7             	mov    %rax,%rdi
  433221:	e8 0a 06 00 00       	callq  433830 <std::__uniq_ptr_impl<x666::Expression, std::default_delete<x666::Expression> >::_M_deleter()>
  433226:	c9                   	leaveq 
  433227:	c3                   	retq   

0000000000433228 <std::__uniq_ptr_impl<x666::Expression, std::default_delete<x666::Expression> >::_M_ptr()>:
      pointer&   _M_ptr() { return std::get<0>(_M_t); }
  433228:	55                   	push   %rbp
  433229:	48 89 e5             	mov    %rsp,%rbp
  43322c:	48 83 ec 10          	sub    $0x10,%rsp
  433230:	48 89 7d f8          	mov    %rdi,-0x8(%rbp)
  433234:	48 8b 45 f8          	mov    -0x8(%rbp),%rax
  433238:	48 89 c7             	mov    %rax,%rdi
  43323b:	e8 0a 06 00 00       	callq  43384a <std::tuple_element<0ul, std::tuple<x666::Expression*, std::default_delete<x666::Expression> > >::type& std::get<0ul, x666::Expression*, std::default_delete<x666::Expression> >(std::tuple<x666::Expression*, std::default_delete<x666::Expression> >&)>
  433240:	c9                   	leaveq 
  433241:	c3                   	retq   

0000000000433242 <std::default_delete<x666::Expression>::operator()(x666::Expression*) const>:
      operator()(_Tp* __ptr) const
  433242:	55                   	push   %rbp
  433243:	48 89 e5             	mov    %rsp,%rbp
  433246:	48 83 ec 10          	sub    $0x10,%rsp
  43324a:	48 89 7d f8          	mov    %rdi,-0x8(%rbp)
  43324e:	48 89 75 f0          	mov    %rsi,-0x10(%rbp)
	delete __ptr;
  433252:	48 83 7d f0 00       	cmpq   $0x0,-0x10(%rbp)
  433257:	74 17                	je     433270 <std::default_delete<x666::Expression>::operator()(x666::Expression*) const+0x2e>
  433259:	48 8b 45 f0          	mov    -0x10(%rbp),%rax
  43325d:	48 8b 00             	mov    (%rax),%rax
  433260:	48 83 c0 08          	add    $0x8,%rax
  433264:	48 8b 00             	mov    (%rax),%rax
  433267:	48 8b 55 f0          	mov    -0x10(%rbp),%rdx
  43326b:	48 89 d7             	mov    %rdx,%rdi
  43326e:	ff d0                	callq  *%rax
      }
  433270:	90                   	nop
  433271:	c9                   	leaveq 
  433272:	c3                   	retq   
  433273:	90                   	nop

0000000000433274 <std::_Vector_base<std::unique_ptr<x666::Expression, std::default_delete<x666::Expression> >, std::allocator<std::unique_ptr<x666::Expression, std::default_delete<x666::Expression> > > >::_Vector_impl::~_Vector_impl()>:
      struct _Vector_impl
  433274:	55                   	push   %rbp
  433275:	48 89 e5             	mov    %rsp,%rbp
  433278:	48 83 ec 10          	sub    $0x10,%rsp
  43327c:	48 89 7d f8          	mov    %rdi,-0x8(%rbp)
  433280:	48 8b 45 f8          	mov    -0x8(%rbp),%rax
  433284:	48 89 c7             	mov    %rax,%rdi
  433287:	e8 d8 05 00 00       	callq  433864 <std::allocator<std::unique_ptr<x666::Expression, std::default_delete<x666::Expression> > >::~allocator()>
  43328c:	90                   	nop
  43328d:	c9                   	leaveq 
  43328e:	c3                   	retq   
  43328f:	90                   	nop

0000000000433290 <std::_Vector_base<std::unique_ptr<x666::Expression, std::default_delete<x666::Expression> >, std::allocator<std::unique_ptr<x666::Expression, std::default_delete<x666::Expression> > > >::~_Vector_base()>:
      ~_Vector_base() _GLIBCXX_NOEXCEPT
  433290:	55                   	push   %rbp
  433291:	48 89 e5             	mov    %rsp,%rbp
  433294:	48 83 ec 10          	sub    $0x10,%rsp
  433298:	48 89 7d f8          	mov    %rdi,-0x8(%rbp)
		      _M_impl._M_end_of_storage - _M_impl._M_start);
  43329c:	48 8b 45 f8          	mov    -0x8(%rbp),%rax
  4332a0:	48 8b 40 10          	mov    0x10(%rax),%rax
  4332a4:	48 89 c2             	mov    %rax,%rdx
  4332a7:	48 8b 45 f8          	mov    -0x8(%rbp),%rax
  4332ab:	48 8b 00             	mov    (%rax),%rax
  4332ae:	48 29 c2             	sub    %rax,%rdx
  4332b1:	48 89 d0             	mov    %rdx,%rax
  4332b4:	48 c1 f8 03          	sar    $0x3,%rax
	_M_deallocate(_M_impl._M_start,
  4332b8:	48 89 c2             	mov    %rax,%rdx
  4332bb:	48 8b 45 f8          	mov    -0x8(%rbp),%rax
  4332bf:	48 8b 08             	mov    (%rax),%rcx
  4332c2:	48 8b 45 f8          	mov    -0x8(%rbp),%rax
  4332c6:	48 89 ce             	mov    %rcx,%rsi
  4332c9:	48 89 c7             	mov    %rax,%rdi
  4332cc:	e8 af 05 00 00       	callq  433880 <std::_Vector_base<std::unique_ptr<x666::Expression, std::default_delete<x666::Expression> >, std::allocator<std::unique_ptr<x666::Expression, std::default_delete<x666::Expression> > > >::_M_deallocate(std::unique_ptr<x666::Expression, std::default_delete<x666::Expression> >*, unsigned long)>
      }
  4332d1:	48 8b 45 f8          	mov    -0x8(%rbp),%rax
  4332d5:	48 89 c7             	mov    %rax,%rdi
  4332d8:	e8 97 ff ff ff       	callq  433274 <std::_Vector_base<std::unique_ptr<x666::Expression, std::default_delete<x666::Expression> >, std::allocator<std::unique_ptr<x666::Expression, std::default_delete<x666::Expression> > > >::_Vector_impl::~_Vector_impl()>
  4332dd:	90                   	nop
  4332de:	c9                   	leaveq 
  4332df:	c3                   	retq   

00000000004332e0 <std::_Vector_base<std::unique_ptr<x666::Expression, std::default_delete<x666::Expression> >, std::allocator<std::unique_ptr<x666::Expression, std::default_delete<x666::Expression> > > >::_M_get_Tp_allocator()>:
      _M_get_Tp_allocator() _GLIBCXX_NOEXCEPT
  4332e0:	55                   	push   %rbp
  4332e1:	48 89 e5             	mov    %rsp,%rbp
  4332e4:	48 89 7d f8          	mov    %rdi,-0x8(%rbp)
      { return *static_cast<_Tp_alloc_type*>(&this->_M_impl); }
  4332e8:	48 8b 45 f8          	mov    -0x8(%rbp),%rax
  4332ec:	5d                   	pop    %rbp
  4332ed:	c3                   	retq   

00000000004332ee <void std::_Destroy<std::unique_ptr<x666::Expression, std::default_delete<x666::Expression> >*, std::unique_ptr<x666::Expression, std::default_delete<x666::Expression> > >(std::unique_ptr<x666::Expression, std::default_delete<x666::Expression> >*, std::unique_ptr<x666::Expression, std::default_delete<x666::Expression> >*, std::allocator<std::unique_ptr<x666::Expression, std::default_delete<x666::Expression> > >&)>:
	__traits::destroy(__alloc, std::__addressof(*__first));
    }

  template<typename _ForwardIterator, typename _Tp>
    inline void
    _Destroy(_ForwardIterator __first, _ForwardIterator __last,
  4332ee:	55                   	push   %rbp
  4332ef:	48 89 e5             	mov    %rsp,%rbp
  4332f2:	48 83 ec 20          	sub    $0x20,%rsp
  4332f6:	48 89 7d f8          	mov    %rdi,-0x8(%rbp)
  4332fa:	48 89 75 f0          	mov    %rsi,-0x10(%rbp)
  4332fe:	48 89 55 e8          	mov    %rdx,-0x18(%rbp)
	     allocator<_Tp>&)
    {
      _Destroy(__first, __last);
  433302:	48 8b 55 f0          	mov    -0x10(%rbp),%rdx
  433306:	48 8b 45 f8          	mov    -0x8(%rbp),%rax
  43330a:	48 89 d6             	mov    %rdx,%rsi
  43330d:	48 89 c7             	mov    %rax,%rdi
  433310:	e8 a0 05 00 00       	callq  4338b5 <void std::_Destroy<std::unique_ptr<x666::Expression, std::default_delete<x666::Expression> >*>(std::unique_ptr<x666::Expression, std::default_delete<x666::Expression> >*, std::unique_ptr<x666::Expression, std::default_delete<x666::Expression> >*)>
    }
  433315:	90                   	nop
  433316:	c9                   	leaveq 
  433317:	c3                   	retq   

0000000000433318 <std::_Deque_base<std::unique_ptr<x666::Expression, std::default_delete<x666::Expression> >, std::allocator<std::unique_ptr<x666::Expression, std::default_delete<x666::Expression> > > >::_Deque_impl::~_Deque_impl()>:
      struct _Deque_impl
  433318:	55                   	push   %rbp
  433319:	48 89 e5             	mov    %rsp,%rbp
  43331c:	48 83 ec 10          	sub    $0x10,%rsp
  433320:	48 89 7d f8          	mov    %rdi,-0x8(%rbp)
  433324:	48 8b 45 f8          	mov    -0x8(%rbp),%rax
  433328:	48 89 c7             	mov    %rax,%rdi
  43332b:	e8 34 05 00 00       	callq  433864 <std::allocator<std::unique_ptr<x666::Expression, std::default_delete<x666::Expression> > >::~allocator()>
  433330:	90                   	nop
  433331:	c9                   	leaveq 
  433332:	c3                   	retq   
  433333:	90                   	nop

0000000000433334 <std::_Deque_base<std::unique_ptr<x666::Expression, std::default_delete<x666::Expression> >, std::allocator<std::unique_ptr<x666::Expression, std::default_delete<x666::Expression> > > >::~_Deque_base()>:
    _Deque_base<_Tp, _Alloc>::
  433334:	55                   	push   %rbp
  433335:	48 89 e5             	mov    %rsp,%rbp
  433338:	48 83 ec 10          	sub    $0x10,%rsp
  43333c:	48 89 7d f8          	mov    %rdi,-0x8(%rbp)
      if (this->_M_impl._M_map)
  433340:	48 8b 45 f8          	mov    -0x8(%rbp),%rax
  433344:	48 8b 00             	mov    (%rax),%rax
  433347:	48 85 c0             	test   %rax,%rax
  43334a:	74 41                	je     43338d <std::_Deque_base<std::unique_ptr<x666::Expression, std::default_delete<x666::Expression> >, std::allocator<std::unique_ptr<x666::Expression, std::default_delete<x666::Expression> > > >::~_Deque_base()+0x59>
			   this->_M_impl._M_finish._M_node + 1);
  43334c:	48 8b 45 f8          	mov    -0x8(%rbp),%rax
  433350:	48 8b 40 48          	mov    0x48(%rax),%rax
	  _M_destroy_nodes(this->_M_impl._M_start._M_node,
  433354:	48 8d 50 08          	lea    0x8(%rax),%rdx
  433358:	48 8b 45 f8          	mov    -0x8(%rbp),%rax
  43335c:	48 8b 48 28          	mov    0x28(%rax),%rcx
  433360:	48 8b 45 f8          	mov    -0x8(%rbp),%rax
  433364:	48 89 ce             	mov    %rcx,%rsi
  433367:	48 89 c7             	mov    %rax,%rdi
  43336a:	e8 6d 05 00 00       	callq  4338dc <std::_Deque_base<std::unique_ptr<x666::Expression, std::default_delete<x666::Expression> >, std::allocator<std::unique_ptr<x666::Expression, std::default_delete<x666::Expression> > > >::_M_destroy_nodes(std::unique_ptr<x666::Expression, std::default_delete<x666::Expression> >**, std::unique_ptr<x666::Expression, std::default_delete<x666::Expression> >**)>
	  _M_deallocate_map(this->_M_impl._M_map, this->_M_impl._M_map_size);
  43336f:	48 8b 45 f8          	mov    -0x8(%rbp),%rax
  433373:	48 8b 50 08          	mov    0x8(%rax),%rdx
  433377:	48 8b 45 f8          	mov    -0x8(%rbp),%rax
  43337b:	48 8b 08             	mov    (%rax),%rcx
  43337e:	48 8b 45 f8          	mov    -0x8(%rbp),%rax
  433382:	48 89 ce             	mov    %rcx,%rsi
  433385:	48 89 c7             	mov    %rax,%rdi
  433388:	e8 95 05 00 00       	callq  433922 <std::_Deque_base<std::unique_ptr<x666::Expression, std::default_delete<x666::Expression> >, std::allocator<std::unique_ptr<x666::Expression, std::default_delete<x666::Expression> > > >::_M_deallocate_map(std::unique_ptr<x666::Expression, std::default_delete<x666::Expression> >**, unsigned long)>
    }
  43338d:	48 8b 45 f8          	mov    -0x8(%rbp),%rax
  433391:	48 89 c7             	mov    %rax,%rdi
  433394:	e8 7f ff ff ff       	callq  433318 <std::_Deque_base<std::unique_ptr<x666::Expression, std::default_delete<x666::Expression> >, std::allocator<std::unique_ptr<x666::Expression, std::default_delete<x666::Expression> > > >::_Deque_impl::~_Deque_impl()>
  433399:	90                   	nop
  43339a:	c9                   	leaveq 
  43339b:	c3                   	retq   

000000000043339c <std::deque<std::unique_ptr<x666::Expression, std::default_delete<x666::Expression> >, std::allocator<std::unique_ptr<x666::Expression, std::default_delete<x666::Expression> > > >::begin()>:
      /**
       *  Returns a read/write iterator that points to the first element in the
       *  %deque.  Iteration is done in ordinary element order.
       */
      iterator
      begin() _GLIBCXX_NOEXCEPT
  43339c:	55                   	push   %rbp
  43339d:	48 89 e5             	mov    %rsp,%rbp
  4333a0:	48 83 ec 10          	sub    $0x10,%rsp
  4333a4:	48 89 7d f8          	mov    %rdi,-0x8(%rbp)
  4333a8:	48 89 75 f0          	mov    %rsi,-0x10(%rbp)
      { return this->_M_impl._M_start; }
  4333ac:	48 8b 45 f0          	mov    -0x10(%rbp),%rax
  4333b0:	48 8d 50 10          	lea    0x10(%rax),%rdx
  4333b4:	48 8b 45 f8          	mov    -0x8(%rbp),%rax
  4333b8:	48 89 d6             	mov    %rdx,%rsi
  4333bb:	48 89 c7             	mov    %rax,%rdi
  4333be:	e8 ad 05 00 00       	callq  433970 <std::_Deque_iterator<std::unique_ptr<x666::Expression, std::default_delete<x666::Expression> >, std::unique_ptr<x666::Expression, std::default_delete<x666::Expression> >&, std::unique_ptr<x666::Expression, std::default_delete<x666::Expression> >*>::_Deque_iterator(std::_Deque_iterator<std::unique_ptr<x666::Expression, std::default_delete<x666::Expression> >, std::unique_ptr<x666::Expression, std::default_delete<x666::Expression> >&, std::unique_ptr<x666::Expression, std::default_delete<x666::Expression> >*> const&)>
  4333c3:	48 8b 45 f8          	mov    -0x8(%rbp),%rax
  4333c7:	c9                   	leaveq 
  4333c8:	c3                   	retq   
  4333c9:	90                   	nop

00000000004333ca <std::deque<std::unique_ptr<x666::Expression, std::default_delete<x666::Expression> >, std::allocator<std::unique_ptr<x666::Expression, std::default_delete<x666::Expression> > > >::end()>:
       *  Returns a read/write iterator that points one past the last
       *  element in the %deque.  Iteration is done in ordinary
       *  element order.
       */
      iterator
      end() _GLIBCXX_NOEXCEPT
  4333ca:	55                   	push   %rbp
  4333cb:	48 89 e5             	mov    %rsp,%rbp
  4333ce:	48 83 ec 10          	sub    $0x10,%rsp
  4333d2:	48 89 7d f8          	mov    %rdi,-0x8(%rbp)
  4333d6:	48 89 75 f0          	mov    %rsi,-0x10(%rbp)
      { return this->_M_impl._M_finish; }
  4333da:	48 8b 45 f0          	mov    -0x10(%rbp),%rax
  4333de:	48 8d 50 30          	lea    0x30(%rax),%rdx
  4333e2:	48 8b 45 f8          	mov    -0x8(%rbp),%rax
  4333e6:	48 89 d6             	mov    %rdx,%rsi
  4333e9:	48 89 c7             	mov    %rax,%rdi
  4333ec:	e8 7f 05 00 00       	callq  433970 <std::_Deque_iterator<std::unique_ptr<x666::Expression, std::default_delete<x666::Expression> >, std::unique_ptr<x666::Expression, std::default_delete<x666::Expression> >&, std::unique_ptr<x666::Expression, std::default_delete<x666::Expression> >*>::_Deque_iterator(std::_Deque_iterator<std::unique_ptr<x666::Expression, std::default_delete<x666::Expression> >, std::unique_ptr<x666::Expression, std::default_delete<x666::Expression> >&, std::unique_ptr<x666::Expression, std::default_delete<x666::Expression> >*> const&)>
  4333f1:	48 8b 45 f8          	mov    -0x8(%rbp),%rax
  4333f5:	c9                   	leaveq 
  4333f6:	c3                   	retq   
  4333f7:	90                   	nop

00000000004333f8 <std::_Deque_base<std::unique_ptr<x666::Expression, std::default_delete<x666::Expression> >, std::allocator<std::unique_ptr<x666::Expression, std::default_delete<x666::Expression> > > >::_M_get_Tp_allocator()>:
      _M_get_Tp_allocator() _GLIBCXX_NOEXCEPT
  4333f8:	55                   	push   %rbp
  4333f9:	48 89 e5             	mov    %rsp,%rbp
  4333fc:	48 89 7d f8          	mov    %rdi,-0x8(%rbp)
      { return *static_cast<_Tp_alloc_type*>(&this->_M_impl); }
  433400:	48 8b 45 f8          	mov    -0x8(%rbp),%rax
  433404:	5d                   	pop    %rbp
  433405:	c3                   	retq   

0000000000433406 <std::deque<std::unique_ptr<x666::Expression, std::default_delete<x666::Expression> >, std::allocator<std::unique_ptr<x666::Expression, std::default_delete<x666::Expression> > > >::_M_destroy_data(std::_Deque_iterator<std::unique_ptr<x666::Expression, std::default_delete<x666::Expression> >, std::unique_ptr<x666::Expression, std::default_delete<x666::Expression> >&, std::unique_ptr<x666::Expression, std::default_delete<x666::Expression> >*>, std::_Deque_iterator<std::unique_ptr<x666::Expression, std::default_delete<x666::Expression> >, std::unique_ptr<x666::Expression, std::default_delete<x666::Expression> >&, std::unique_ptr<x666::Expression, std::default_delete<x666::Expression> >*>, std::allocator<std::unique_ptr<x666::Expression, std::default_delete<x666::Expression> > > const&)>:
	void
	_M_destroy_data(iterator __first, iterator __last, const _Alloc1&)
	{ _M_destroy_data_aux(__first, __last); }

      void
      _M_destroy_data(iterator __first, iterator __last,
  433406:	55                   	push   %rbp
  433407:	48 89 e5             	mov    %rsp,%rbp
  43340a:	48 83 ec 60          	sub    $0x60,%rsp
  43340e:	48 89 7d b8          	mov    %rdi,-0x48(%rbp)
  433412:	48 89 75 b0          	mov    %rsi,-0x50(%rbp)
  433416:	48 89 55 a8          	mov    %rdx,-0x58(%rbp)
  43341a:	48 89 4d a0          	mov    %rcx,-0x60(%rbp)
		      const std::allocator<_Tp>&)
      {
	if (!__has_trivial_destructor(value_type))
	  _M_destroy_data_aux(__first, __last);
  43341e:	48 8b 55 a8          	mov    -0x58(%rbp),%rdx
  433422:	48 8d 45 c0          	lea    -0x40(%rbp),%rax
  433426:	48 89 d6             	mov    %rdx,%rsi
  433429:	48 89 c7             	mov    %rax,%rdi
  43342c:	e8 3f 05 00 00       	callq  433970 <std::_Deque_iterator<std::unique_ptr<x666::Expression, std::default_delete<x666::Expression> >, std::unique_ptr<x666::Expression, std::default_delete<x666::Expression> >&, std::unique_ptr<x666::Expression, std::default_delete<x666::Expression> >*>::_Deque_iterator(std::_Deque_iterator<std::unique_ptr<x666::Expression, std::default_delete<x666::Expression> >, std::unique_ptr<x666::Expression, std::default_delete<x666::Expression> >&, std::unique_ptr<x666::Expression, std::default_delete<x666::Expression> >*> const&)>
  433431:	48 8b 55 b0          	mov    -0x50(%rbp),%rdx
  433435:	48 8d 45 e0          	lea    -0x20(%rbp),%rax
  433439:	48 89 d6             	mov    %rdx,%rsi
  43343c:	48 89 c7             	mov    %rax,%rdi
  43343f:	e8 2c 05 00 00       	callq  433970 <std::_Deque_iterator<std::unique_ptr<x666::Expression, std::default_delete<x666::Expression> >, std::unique_ptr<x666::Expression, std::default_delete<x666::Expression> >&, std::unique_ptr<x666::Expression, std::default_delete<x666::Expression> >*>::_Deque_iterator(std::_Deque_iterator<std::unique_ptr<x666::Expression, std::default_delete<x666::Expression> >, std::unique_ptr<x666::Expression, std::default_delete<x666::Expression> >&, std::unique_ptr<x666::Expression, std::default_delete<x666::Expression> >*> const&)>
  433444:	48 8d 55 c0          	lea    -0x40(%rbp),%rdx
  433448:	48 8d 45 e0          	lea    -0x20(%rbp),%rax
  43344c:	48 8b 4d b8          	mov    -0x48(%rbp),%rcx
  433450:	48 89 c6             	mov    %rax,%rsi
  433453:	48 89 cf             	mov    %rcx,%rdi
  433456:	e8 63 05 00 00       	callq  4339be <std::deque<std::unique_ptr<x666::Expression, std::default_delete<x666::Expression> >, std::allocator<std::unique_ptr<x666::Expression, std::default_delete<x666::Expression> > > >::_M_destroy_data_aux(std::_Deque_iterator<std::unique_ptr<x666::Expression, std::default_delete<x666::Expression> >, std::unique_ptr<x666::Expression, std::default_delete<x666::Expression> >&, std::unique_ptr<x666::Expression, std::default_delete<x666::Expression> >*>, std::_Deque_iterator<std::unique_ptr<x666::Expression, std::default_delete<x666::Expression> >, std::unique_ptr<x666::Expression, std::default_delete<x666::Expression> >&, std::unique_ptr<x666::Expression, std::default_delete<x666::Expression> >*>)>
      }
  43345b:	90                   	nop
  43345c:	c9                   	leaveq 
  43345d:	c3                   	retq   

000000000043345e <std::_Deque_base<x666::LineInfo, std::allocator<x666::LineInfo> >::_Deque_impl::~_Deque_impl()>:
      struct _Deque_impl
  43345e:	55                   	push   %rbp
  43345f:	48 89 e5             	mov    %rsp,%rbp
  433462:	48 83 ec 10          	sub    $0x10,%rsp
  433466:	48 89 7d f8          	mov    %rdi,-0x8(%rbp)
  43346a:	48 8b 45 f8          	mov    -0x8(%rbp),%rax
  43346e:	48 89 c7             	mov    %rax,%rdi
  433471:	e8 58 06 00 00       	callq  433ace <std::allocator<x666::LineInfo>::~allocator()>
  433476:	90                   	nop
  433477:	c9                   	leaveq 
  433478:	c3                   	retq   
  433479:	90                   	nop

000000000043347a <std::_Deque_base<x666::LineInfo, std::allocator<x666::LineInfo> >::~_Deque_base()>:
    _Deque_base<_Tp, _Alloc>::
  43347a:	55                   	push   %rbp
  43347b:	48 89 e5             	mov    %rsp,%rbp
  43347e:	48 83 ec 10          	sub    $0x10,%rsp
  433482:	48 89 7d f8          	mov    %rdi,-0x8(%rbp)
      if (this->_M_impl._M_map)
  433486:	48 8b 45 f8          	mov    -0x8(%rbp),%rax
  43348a:	48 8b 00             	mov    (%rax),%rax
  43348d:	48 85 c0             	test   %rax,%rax
  433490:	74 41                	je     4334d3 <std::_Deque_base<x666::LineInfo, std::allocator<x666::LineInfo> >::~_Deque_base()+0x59>
			   this->_M_impl._M_finish._M_node + 1);
  433492:	48 8b 45 f8          	mov    -0x8(%rbp),%rax
  433496:	48 8b 40 48          	mov    0x48(%rax),%rax
	  _M_destroy_nodes(this->_M_impl._M_start._M_node,
  43349a:	48 8d 50 08          	lea    0x8(%rax),%rdx
  43349e:	48 8b 45 f8          	mov    -0x8(%rbp),%rax
  4334a2:	48 8b 48 28          	mov    0x28(%rax),%rcx
  4334a6:	48 8b 45 f8          	mov    -0x8(%rbp),%rax
  4334aa:	48 89 ce             	mov    %rcx,%rsi
  4334ad:	48 89 c7             	mov    %rax,%rdi
  4334b0:	e8 35 06 00 00       	callq  433aea <std::_Deque_base<x666::LineInfo, std::allocator<x666::LineInfo> >::_M_destroy_nodes(x666::LineInfo**, x666::LineInfo**)>
	  _M_deallocate_map(this->_M_impl._M_map, this->_M_impl._M_map_size);
  4334b5:	48 8b 45 f8          	mov    -0x8(%rbp),%rax
  4334b9:	48 8b 50 08          	mov    0x8(%rax),%rdx
  4334bd:	48 8b 45 f8          	mov    -0x8(%rbp),%rax
  4334c1:	48 8b 08             	mov    (%rax),%rcx
  4334c4:	48 8b 45 f8          	mov    -0x8(%rbp),%rax
  4334c8:	48 89 ce             	mov    %rcx,%rsi
  4334cb:	48 89 c7             	mov    %rax,%rdi
  4334ce:	e8 5d 06 00 00       	callq  433b30 <std::_Deque_base<x666::LineInfo, std::allocator<x666::LineInfo> >::_M_deallocate_map(x666::LineInfo**, unsigned long)>
    }
  4334d3:	48 8b 45 f8          	mov    -0x8(%rbp),%rax
  4334d7:	48 89 c7             	mov    %rax,%rdi
  4334da:	e8 7f ff ff ff       	callq  43345e <std::_Deque_base<x666::LineInfo, std::allocator<x666::LineInfo> >::_Deque_impl::~_Deque_impl()>
  4334df:	90                   	nop
  4334e0:	c9                   	leaveq 
  4334e1:	c3                   	retq   

00000000004334e2 <std::deque<x666::LineInfo, std::allocator<x666::LineInfo> >::begin()>:
      begin() _GLIBCXX_NOEXCEPT
  4334e2:	55                   	push   %rbp
  4334e3:	48 89 e5             	mov    %rsp,%rbp
  4334e6:	48 83 ec 10          	sub    $0x10,%rsp
  4334ea:	48 89 7d f8          	mov    %rdi,-0x8(%rbp)
  4334ee:	48 89 75 f0          	mov    %rsi,-0x10(%rbp)
      { return this->_M_impl._M_start; }
  4334f2:	48 8b 45 f0          	mov    -0x10(%rbp),%rax
  4334f6:	48 8d 50 10          	lea    0x10(%rax),%rdx
  4334fa:	48 8b 45 f8          	mov    -0x8(%rbp),%rax
  4334fe:	48 89 d6             	mov    %rdx,%rsi
  433501:	48 89 c7             	mov    %rax,%rdi
  433504:	e8 75 06 00 00       	callq  433b7e <std::_Deque_iterator<x666::LineInfo, x666::LineInfo&, x666::LineInfo*>::_Deque_iterator(std::_Deque_iterator<x666::LineInfo, x666::LineInfo&, x666::LineInfo*> const&)>
  433509:	48 8b 45 f8          	mov    -0x8(%rbp),%rax
  43350d:	c9                   	leaveq 
  43350e:	c3                   	retq   
  43350f:	90                   	nop

0000000000433510 <std::deque<x666::LineInfo, std::allocator<x666::LineInfo> >::end()>:
      end() _GLIBCXX_NOEXCEPT
  433510:	55                   	push   %rbp
  433511:	48 89 e5             	mov    %rsp,%rbp
  433514:	48 83 ec 10          	sub    $0x10,%rsp
  433518:	48 89 7d f8          	mov    %rdi,-0x8(%rbp)
  43351c:	48 89 75 f0          	mov    %rsi,-0x10(%rbp)
      { return this->_M_impl._M_finish; }
  433520:	48 8b 45 f0          	mov    -0x10(%rbp),%rax
  433524:	48 8d 50 30          	lea    0x30(%rax),%rdx
  433528:	48 8b 45 f8          	mov    -0x8(%rbp),%rax
  43352c:	48 89 d6             	mov    %rdx,%rsi
  43352f:	48 89 c7             	mov    %rax,%rdi
  433532:	e8 47 06 00 00       	callq  433b7e <std::_Deque_iterator<x666::LineInfo, x666::LineInfo&, x666::LineInfo*>::_Deque_iterator(std::_Deque_iterator<x666::LineInfo, x666::LineInfo&, x666::LineInfo*> const&)>
  433537:	48 8b 45 f8          	mov    -0x8(%rbp),%rax
  43353b:	c9                   	leaveq 
  43353c:	c3                   	retq   
  43353d:	90                   	nop

000000000043353e <std::_Deque_base<x666::LineInfo, std::allocator<x666::LineInfo> >::_M_get_Tp_allocator()>:
      _M_get_Tp_allocator() _GLIBCXX_NOEXCEPT
  43353e:	55                   	push   %rbp
  43353f:	48 89 e5             	mov    %rsp,%rbp
  433542:	48 89 7d f8          	mov    %rdi,-0x8(%rbp)
      { return *static_cast<_Tp_alloc_type*>(&this->_M_impl); }
  433546:	48 8b 45 f8          	mov    -0x8(%rbp),%rax
  43354a:	5d                   	pop    %rbp
  43354b:	c3                   	retq   

000000000043354c <std::deque<x666::LineInfo, std::allocator<x666::LineInfo> >::_M_destroy_data(std::_Deque_iterator<x666::LineInfo, x666::LineInfo&, x666::LineInfo*>, std::_Deque_iterator<x666::LineInfo, x666::LineInfo&, x666::LineInfo*>, std::allocator<x666::LineInfo> const&)>:
      _M_destroy_data(iterator __first, iterator __last,
  43354c:	55                   	push   %rbp
  43354d:	48 89 e5             	mov    %rsp,%rbp
  433550:	48 89 7d b8          	mov    %rdi,-0x48(%rbp)
  433554:	48 89 75 b0          	mov    %rsi,-0x50(%rbp)
  433558:	48 89 55 a8          	mov    %rdx,-0x58(%rbp)
  43355c:	48 89 4d a0          	mov    %rcx,-0x60(%rbp)
      }
  433560:	90                   	nop
  433561:	5d                   	pop    %rbp
  433562:	c3                   	retq   
  433563:	90                   	nop

0000000000433564 <std::_Deque_base<x666::Parser::BracketEntry, std::allocator<x666::Parser::BracketEntry> >::_Deque_impl::~_Deque_impl()>:
      struct _Deque_impl
  433564:	55                   	push   %rbp
  433565:	48 89 e5             	mov    %rsp,%rbp
  433568:	48 83 ec 10          	sub    $0x10,%rsp
  43356c:	48 89 7d f8          	mov    %rdi,-0x8(%rbp)
  433570:	48 8b 45 f8          	mov    -0x8(%rbp),%rax
  433574:	48 89 c7             	mov    %rax,%rdi
  433577:	e8 50 06 00 00       	callq  433bcc <std::allocator<x666::Parser::BracketEntry>::~allocator()>
  43357c:	90                   	nop
  43357d:	c9                   	leaveq 
  43357e:	c3                   	retq   
  43357f:	90                   	nop

0000000000433580 <std::_Deque_base<x666::Parser::BracketEntry, std::allocator<x666::Parser::BracketEntry> >::~_Deque_base()>:
    _Deque_base<_Tp, _Alloc>::
  433580:	55                   	push   %rbp
  433581:	48 89 e5             	mov    %rsp,%rbp
  433584:	48 83 ec 10          	sub    $0x10,%rsp
  433588:	48 89 7d f8          	mov    %rdi,-0x8(%rbp)
      if (this->_M_impl._M_map)
  43358c:	48 8b 45 f8          	mov    -0x8(%rbp),%rax
  433590:	48 8b 00             	mov    (%rax),%rax
  433593:	48 85 c0             	test   %rax,%rax
  433596:	74 41                	je     4335d9 <std::_Deque_base<x666::Parser::BracketEntry, std::allocator<x666::Parser::BracketEntry> >::~_Deque_base()+0x59>
			   this->_M_impl._M_finish._M_node + 1);
  433598:	48 8b 45 f8          	mov    -0x8(%rbp),%rax
  43359c:	48 8b 40 48          	mov    0x48(%rax),%rax
	  _M_destroy_nodes(this->_M_impl._M_start._M_node,
  4335a0:	48 8d 50 08          	lea    0x8(%rax),%rdx
  4335a4:	48 8b 45 f8          	mov    -0x8(%rbp),%rax
  4335a8:	48 8b 48 28          	mov    0x28(%rax),%rcx
  4335ac:	48 8b 45 f8          	mov    -0x8(%rbp),%rax
  4335b0:	48 89 ce             	mov    %rcx,%rsi
  4335b3:	48 89 c7             	mov    %rax,%rdi
  4335b6:	e8 2d 06 00 00       	callq  433be8 <std::_Deque_base<x666::Parser::BracketEntry, std::allocator<x666::Parser::BracketEntry> >::_M_destroy_nodes(x666::Parser::BracketEntry**, x666::Parser::BracketEntry**)>
	  _M_deallocate_map(this->_M_impl._M_map, this->_M_impl._M_map_size);
  4335bb:	48 8b 45 f8          	mov    -0x8(%rbp),%rax
  4335bf:	48 8b 50 08          	mov    0x8(%rax),%rdx
  4335c3:	48 8b 45 f8          	mov    -0x8(%rbp),%rax
  4335c7:	48 8b 08             	mov    (%rax),%rcx
  4335ca:	48 8b 45 f8          	mov    -0x8(%rbp),%rax
  4335ce:	48 89 ce             	mov    %rcx,%rsi
  4335d1:	48 89 c7             	mov    %rax,%rdi
  4335d4:	e8 55 06 00 00       	callq  433c2e <std::_Deque_base<x666::Parser::BracketEntry, std::allocator<x666::Parser::BracketEntry> >::_M_deallocate_map(x666::Parser::BracketEntry**, unsigned long)>
    }
  4335d9:	48 8b 45 f8          	mov    -0x8(%rbp),%rax
  4335dd:	48 89 c7             	mov    %rax,%rdi
  4335e0:	e8 7f ff ff ff       	callq  433564 <std::_Deque_base<x666::Parser::BracketEntry, std::allocator<x666::Parser::BracketEntry> >::_Deque_impl::~_Deque_impl()>
  4335e5:	90                   	nop
  4335e6:	c9                   	leaveq 
  4335e7:	c3                   	retq   

00000000004335e8 <std::deque<x666::Parser::BracketEntry, std::allocator<x666::Parser::BracketEntry> >::begin()>:
      begin() _GLIBCXX_NOEXCEPT
  4335e8:	55                   	push   %rbp
  4335e9:	48 89 e5             	mov    %rsp,%rbp
  4335ec:	48 83 ec 10          	sub    $0x10,%rsp
  4335f0:	48 89 7d f8          	mov    %rdi,-0x8(%rbp)
  4335f4:	48 89 75 f0          	mov    %rsi,-0x10(%rbp)
      { return this->_M_impl._M_start; }
  4335f8:	48 8b 45 f0          	mov    -0x10(%rbp),%rax
  4335fc:	48 8d 50 10          	lea    0x10(%rax),%rdx
  433600:	48 8b 45 f8          	mov    -0x8(%rbp),%rax
  433604:	48 89 d6             	mov    %rdx,%rsi
  433607:	48 89 c7             	mov    %rax,%rdi
  43360a:	e8 6d 06 00 00       	callq  433c7c <std::_Deque_iterator<x666::Parser::BracketEntry, x666::Parser::BracketEntry&, x666::Parser::BracketEntry*>::_Deque_iterator(std::_Deque_iterator<x666::Parser::BracketEntry, x666::Parser::BracketEntry&, x666::Parser::BracketEntry*> const&)>
  43360f:	48 8b 45 f8          	mov    -0x8(%rbp),%rax
  433613:	c9                   	leaveq 
  433614:	c3                   	retq   
  433615:	90                   	nop

0000000000433616 <std::deque<x666::Parser::BracketEntry, std::allocator<x666::Parser::BracketEntry> >::end()>:
      end() _GLIBCXX_NOEXCEPT
  433616:	55                   	push   %rbp
  433617:	48 89 e5             	mov    %rsp,%rbp
  43361a:	48 83 ec 10          	sub    $0x10,%rsp
  43361e:	48 89 7d f8          	mov    %rdi,-0x8(%rbp)
  433622:	48 89 75 f0          	mov    %rsi,-0x10(%rbp)
      { return this->_M_impl._M_finish; }
  433626:	48 8b 45 f0          	mov    -0x10(%rbp),%rax
  43362a:	48 8d 50 30          	lea    0x30(%rax),%rdx
  43362e:	48 8b 45 f8          	mov    -0x8(%rbp),%rax
  433632:	48 89 d6             	mov    %rdx,%rsi
  433635:	48 89 c7             	mov    %rax,%rdi
  433638:	e8 3f 06 00 00       	callq  433c7c <std::_Deque_iterator<x666::Parser::BracketEntry, x666::Parser::BracketEntry&, x666::Parser::BracketEntry*>::_Deque_iterator(std::_Deque_iterator<x666::Parser::BracketEntry, x666::Parser::BracketEntry&, x666::Parser::BracketEntry*> const&)>
  43363d:	48 8b 45 f8          	mov    -0x8(%rbp),%rax
  433641:	c9                   	leaveq 
  433642:	c3                   	retq   
  433643:	90                   	nop

0000000000433644 <std::_Deque_base<x666::Parser::BracketEntry, std::allocator<x666::Parser::BracketEntry> >::_M_get_Tp_allocator()>:
      _M_get_Tp_allocator() _GLIBCXX_NOEXCEPT
  433644:	55                   	push   %rbp
  433645:	48 89 e5             	mov    %rsp,%rbp
  433648:	48 89 7d f8          	mov    %rdi,-0x8(%rbp)
      { return *static_cast<_Tp_alloc_type*>(&this->_M_impl); }
  43364c:	48 8b 45 f8          	mov    -0x8(%rbp),%rax
  433650:	5d                   	pop    %rbp
  433651:	c3                   	retq   

0000000000433652 <std::deque<x666::Parser::BracketEntry, std::allocator<x666::Parser::BracketEntry> >::_M_destroy_data(std::_Deque_iterator<x666::Parser::BracketEntry, x666::Parser::BracketEntry&, x666::Parser::BracketEntry*>, std::_Deque_iterator<x666::Parser::BracketEntry, x666::Parser::BracketEntry&, x666::Parser::BracketEntry*>, std::allocator<x666::Parser::BracketEntry> const&)>:
      _M_destroy_data(iterator __first, iterator __last,
  433652:	55                   	push   %rbp
  433653:	48 89 e5             	mov    %rsp,%rbp
  433656:	48 89 7d b8          	mov    %rdi,-0x48(%rbp)
  43365a:	48 89 75 b0          	mov    %rsi,-0x50(%rbp)
  43365e:	48 89 55 a8          	mov    %rdx,-0x58(%rbp)
  433662:	48 89 4d a0          	mov    %rcx,-0x60(%rbp)
      }
  433666:	90                   	nop
  433667:	5d                   	pop    %rbp
  433668:	c3                   	retq   
  433669:	90                   	nop

000000000043366a <std::_Vector_base<x666::LexError, std::allocator<x666::LexError> >::_Vector_impl::~_Vector_impl()>:
      struct _Vector_impl
  43366a:	55                   	push   %rbp
  43366b:	48 89 e5             	mov    %rsp,%rbp
  43366e:	48 83 ec 10          	sub    $0x10,%rsp
  433672:	48 89 7d f8          	mov    %rdi,-0x8(%rbp)
  433676:	48 8b 45 f8          	mov    -0x8(%rbp),%rax
  43367a:	48 89 c7             	mov    %rax,%rdi
  43367d:	e8 48 06 00 00       	callq  433cca <std::allocator<x666::LexError>::~allocator()>
  433682:	90                   	nop
  433683:	c9                   	leaveq 
  433684:	c3                   	retq   
  433685:	90                   	nop

0000000000433686 <std::_Vector_base<x666::LexError, std::allocator<x666::LexError> >::~_Vector_base()>:
      ~_Vector_base() _GLIBCXX_NOEXCEPT
  433686:	55                   	push   %rbp
  433687:	48 89 e5             	mov    %rsp,%rbp
  43368a:	48 83 ec 10          	sub    $0x10,%rsp
  43368e:	48 89 7d f8          	mov    %rdi,-0x8(%rbp)
		      _M_impl._M_end_of_storage - _M_impl._M_start);
  433692:	48 8b 45 f8          	mov    -0x8(%rbp),%rax
  433696:	48 8b 40 10          	mov    0x10(%rax),%rax
  43369a:	48 89 c2             	mov    %rax,%rdx
  43369d:	48 8b 45 f8          	mov    -0x8(%rbp),%rax
  4336a1:	48 8b 00             	mov    (%rax),%rax
  4336a4:	48 29 c2             	sub    %rax,%rdx
  4336a7:	48 89 d0             	mov    %rdx,%rax
  4336aa:	48 c1 f8 03          	sar    $0x3,%rax
  4336ae:	48 89 c2             	mov    %rax,%rdx
  4336b1:	48 b8 cd cc cc cc cc 	movabs $0xcccccccccccccccd,%rax
  4336b8:	cc cc cc 
  4336bb:	48 0f af c2          	imul   %rdx,%rax
	_M_deallocate(_M_impl._M_start,
  4336bf:	48 89 c2             	mov    %rax,%rdx
  4336c2:	48 8b 45 f8          	mov    -0x8(%rbp),%rax
  4336c6:	48 8b 08             	mov    (%rax),%rcx
  4336c9:	48 8b 45 f8          	mov    -0x8(%rbp),%rax
  4336cd:	48 89 ce             	mov    %rcx,%rsi
  4336d0:	48 89 c7             	mov    %rax,%rdi
  4336d3:	e8 0e 06 00 00       	callq  433ce6 <std::_Vector_base<x666::LexError, std::allocator<x666::LexError> >::_M_deallocate(x666::LexError*, unsigned long)>
      }
  4336d8:	48 8b 45 f8          	mov    -0x8(%rbp),%rax
  4336dc:	48 89 c7             	mov    %rax,%rdi
  4336df:	e8 86 ff ff ff       	callq  43366a <std::_Vector_base<x666::LexError, std::allocator<x666::LexError> >::_Vector_impl::~_Vector_impl()>
  4336e4:	90                   	nop
  4336e5:	c9                   	leaveq 
  4336e6:	c3                   	retq   
  4336e7:	90                   	nop

00000000004336e8 <std::_Vector_base<x666::LexError, std::allocator<x666::LexError> >::_M_get_Tp_allocator()>:
      _M_get_Tp_allocator() _GLIBCXX_NOEXCEPT
  4336e8:	55                   	push   %rbp
  4336e9:	48 89 e5             	mov    %rsp,%rbp
  4336ec:	48 89 7d f8          	mov    %rdi,-0x8(%rbp)
      { return *static_cast<_Tp_alloc_type*>(&this->_M_impl); }
  4336f0:	48 8b 45 f8          	mov    -0x8(%rbp),%rax
  4336f4:	5d                   	pop    %rbp
  4336f5:	c3                   	retq   

00000000004336f6 <void std::_Destroy<x666::LexError*, x666::LexError>(x666::LexError*, x666::LexError*, std::allocator<x666::LexError>&)>:
    _Destroy(_ForwardIterator __first, _ForwardIterator __last,
  4336f6:	55                   	push   %rbp
  4336f7:	48 89 e5             	mov    %rsp,%rbp
  4336fa:	48 83 ec 20          	sub    $0x20,%rsp
  4336fe:	48 89 7d f8          	mov    %rdi,-0x8(%rbp)
  433702:	48 89 75 f0          	mov    %rsi,-0x10(%rbp)
  433706:	48 89 55 e8          	mov    %rdx,-0x18(%rbp)
      _Destroy(__first, __last);
  43370a:	48 8b 55 f0          	mov    -0x10(%rbp),%rdx
  43370e:	48 8b 45 f8          	mov    -0x8(%rbp),%rax
  433712:	48 89 d6             	mov    %rdx,%rsi
  433715:	48 89 c7             	mov    %rax,%rdi
  433718:	e8 fe 05 00 00       	callq  433d1b <void std::_Destroy<x666::LexError*>(x666::LexError*, x666::LexError*)>
    }
  43371d:	90                   	nop
  43371e:	c9                   	leaveq 
  43371f:	c3                   	retq   

0000000000433720 <std::vector<x666::LexError, std::allocator<x666::LexError> >::begin() const>:
      begin() const _GLIBCXX_NOEXCEPT
  433720:	55                   	push   %rbp
  433721:	48 89 e5             	mov    %rsp,%rbp
  433724:	48 83 ec 20          	sub    $0x20,%rsp
  433728:	48 89 7d e8          	mov    %rdi,-0x18(%rbp)
      { return const_iterator(this->_M_impl._M_start); }
  43372c:	48 8b 45 e8          	mov    -0x18(%rbp),%rax
  433730:	48 8b 00             	mov    (%rax),%rax
  433733:	48 89 45 f8          	mov    %rax,-0x8(%rbp)
  433737:	48 8d 55 f8          	lea    -0x8(%rbp),%rdx
  43373b:	48 8d 45 f0          	lea    -0x10(%rbp),%rax
  43373f:	48 89 d6             	mov    %rdx,%rsi
  433742:	48 89 c7             	mov    %rax,%rdi
  433745:	e8 f8 05 00 00       	callq  433d42 <__gnu_cxx::__normal_iterator<x666::LexError const*, std::vector<x666::LexError, std::allocator<x666::LexError> > >::__normal_iterator(x666::LexError const* const&)>
  43374a:	48 8b 45 f0          	mov    -0x10(%rbp),%rax
  43374e:	c9                   	leaveq 
  43374f:	c3                   	retq   

0000000000433750 <std::vector<x666::LexError, std::allocator<x666::LexError> >::end() const>:
      end() const _GLIBCXX_NOEXCEPT
  433750:	55                   	push   %rbp
  433751:	48 89 e5             	mov    %rsp,%rbp
  433754:	48 83 ec 20          	sub    $0x20,%rsp
  433758:	48 89 7d e8          	mov    %rdi,-0x18(%rbp)
      { return const_iterator(this->_M_impl._M_finish); }
  43375c:	48 8b 45 e8          	mov    -0x18(%rbp),%rax
  433760:	48 8b 40 08          	mov    0x8(%rax),%rax
  433764:	48 89 45 f8          	mov    %rax,-0x8(%rbp)
  433768:	48 8d 55 f8          	lea    -0x8(%rbp),%rdx
  43376c:	48 8d 45 f0          	lea    -0x10(%rbp),%rax
  433770:	48 89 d6             	mov    %rdx,%rsi
  433773:	48 89 c7             	mov    %rax,%rdi
  433776:	e8 c7 05 00 00       	callq  433d42 <__gnu_cxx::__normal_iterator<x666::LexError const*, std::vector<x666::LexError, std::allocator<x666::LexError> > >::__normal_iterator(x666::LexError const* const&)>
  43377b:	48 8b 45 f0          	mov    -0x10(%rbp),%rax
  43377f:	c9                   	leaveq 
  433780:	c3                   	retq   

0000000000433781 <bool __gnu_cxx::operator==<x666::LexError const*, std::vector<x666::LexError, std::allocator<x666::LexError> > >(__gnu_cxx::__normal_iterator<x666::LexError const*, std::vector<x666::LexError, std::allocator<x666::LexError> > > const&, __gnu_cxx::__normal_iterator<x666::LexError const*, std::vector<x666::LexError, std::allocator<x666::LexError> > > const&)>:
    operator==(const __normal_iterator<_Iterator, _Container>& __lhs,
  433781:	55                   	push   %rbp
  433782:	48 89 e5             	mov    %rsp,%rbp
  433785:	53                   	push   %rbx
  433786:	48 83 ec 18          	sub    $0x18,%rsp
  43378a:	48 89 7d e8          	mov    %rdi,-0x18(%rbp)
  43378e:	48 89 75 e0          	mov    %rsi,-0x20(%rbp)
    { return __lhs.base() == __rhs.base(); }
  433792:	48 8b 45 e8          	mov    -0x18(%rbp),%rax
  433796:	48 89 c7             	mov    %rax,%rdi
  433799:	e8 c2 05 00 00       	callq  433d60 <__gnu_cxx::__normal_iterator<x666::LexError const*, std::vector<x666::LexError, std::allocator<x666::LexError> > >::base() const>
  43379e:	48 8b 18             	mov    (%rax),%rbx
  4337a1:	48 8b 45 e0          	mov    -0x20(%rbp),%rax
  4337a5:	48 89 c7             	mov    %rax,%rdi
  4337a8:	e8 b3 05 00 00       	callq  433d60 <__gnu_cxx::__normal_iterator<x666::LexError const*, std::vector<x666::LexError, std::allocator<x666::LexError> > >::base() const>
  4337ad:	48 8b 00             	mov    (%rax),%rax
  4337b0:	48 39 c3             	cmp    %rax,%rbx
  4337b3:	0f 94 c0             	sete   %al
  4337b6:	48 83 c4 18          	add    $0x18,%rsp
  4337ba:	5b                   	pop    %rbx
  4337bb:	5d                   	pop    %rbp
  4337bc:	c3                   	retq   
  4337bd:	90                   	nop

00000000004337be <__gnu_cxx::__normal_iterator<std::unique_ptr<x666::Expression, std::default_delete<x666::Expression> >*, std::vector<std::unique_ptr<x666::Expression, std::default_delete<x666::Expression> >, std::allocator<std::unique_ptr<x666::Expression, std::default_delete<x666::Expression> > > > >::__normal_iterator(std::unique_ptr<x666::Expression, std::default_delete<x666::Expression> >* const&)>:
      __normal_iterator(const _Iterator& __i) _GLIBCXX_NOEXCEPT
  4337be:	55                   	push   %rbp
  4337bf:	48 89 e5             	mov    %rsp,%rbp
  4337c2:	48 89 7d f8          	mov    %rdi,-0x8(%rbp)
  4337c6:	48 89 75 f0          	mov    %rsi,-0x10(%rbp)
      : _M_current(__i) { }
  4337ca:	48 8b 45 f0          	mov    -0x10(%rbp),%rax
  4337ce:	48 8b 10             	mov    (%rax),%rdx
  4337d1:	48 8b 45 f8          	mov    -0x8(%rbp),%rax
  4337d5:	48 89 10             	mov    %rdx,(%rax)
  4337d8:	90                   	nop
  4337d9:	5d                   	pop    %rbp
  4337da:	c3                   	retq   
  4337db:	90                   	nop

00000000004337dc <__gnu_cxx::__normal_iterator<std::unique_ptr<x666::Expression, std::default_delete<x666::Expression> >*, std::vector<std::unique_ptr<x666::Expression, std::default_delete<x666::Expression> >, std::allocator<std::unique_ptr<x666::Expression, std::default_delete<x666::Expression> > > > >::base() const>:
      base() const _GLIBCXX_NOEXCEPT
  4337dc:	55                   	push   %rbp
  4337dd:	48 89 e5             	mov    %rsp,%rbp
  4337e0:	48 89 7d f8          	mov    %rdi,-0x8(%rbp)
      { return _M_current; }
  4337e4:	48 8b 45 f8          	mov    -0x8(%rbp),%rax
  4337e8:	5d                   	pop    %rbp
  4337e9:	c3                   	retq   

00000000004337ea <std::unique_ptr<x666::Expression, std::default_delete<x666::Expression> >::get() const>:
      get() const noexcept
  4337ea:	55                   	push   %rbp
  4337eb:	48 89 e5             	mov    %rsp,%rbp
  4337ee:	48 83 ec 10          	sub    $0x10,%rsp
  4337f2:	48 89 7d f8          	mov    %rdi,-0x8(%rbp)
      { return _M_t._M_ptr(); }
  4337f6:	48 8b 45 f8          	mov    -0x8(%rbp),%rax
  4337fa:	48 89 c7             	mov    %rax,%rdi
  4337fd:	e8 6c 05 00 00       	callq  433d6e <std::__uniq_ptr_impl<x666::Expression, std::default_delete<x666::Expression> >::_M_ptr() const>
  433802:	c9                   	leaveq 
  433803:	c3                   	retq   

0000000000433804 <__gnu_cxx::__normal_iterator<x666::LexError*, std::vector<x666::LexError, std::allocator<x666::LexError> > >::__normal_iterator(x666::LexError* const&)>:
      __normal_iterator(const _Iterator& __i) _GLIBCXX_NOEXCEPT
  433804:	55                   	push   %rbp
  433805:	48 89 e5             	mov    %rsp,%rbp
  433808:	48 89 7d f8          	mov    %rdi,-0x8(%rbp)
  43380c:	48 89 75 f0          	mov    %rsi,-0x10(%rbp)
      : _M_current(__i) { }
  433810:	48 8b 45 f0          	mov    -0x10(%rbp),%rax
  433814:	48 8b 10             	mov    (%rax),%rdx
  433817:	48 8b 45 f8          	mov    -0x8(%rbp),%rax
  43381b:	48 89 10             	mov    %rdx,(%rax)
  43381e:	90                   	nop
  43381f:	5d                   	pop    %rbp
  433820:	c3                   	retq   
  433821:	90                   	nop

0000000000433822 <__gnu_cxx::__normal_iterator<x666::LexError*, std::vector<x666::LexError, std::allocator<x666::LexError> > >::base() const>:
      base() const _GLIBCXX_NOEXCEPT
  433822:	55                   	push   %rbp
  433823:	48 89 e5             	mov    %rsp,%rbp
  433826:	48 89 7d f8          	mov    %rdi,-0x8(%rbp)
      { return _M_current; }
  43382a:	48 8b 45 f8          	mov    -0x8(%rbp),%rax
  43382e:	5d                   	pop    %rbp
  43382f:	c3                   	retq   

0000000000433830 <std::__uniq_ptr_impl<x666::Expression, std::default_delete<x666::Expression> >::_M_deleter()>:
      _Dp&       _M_deleter() { return std::get<1>(_M_t); }
  433830:	55                   	push   %rbp
  433831:	48 89 e5             	mov    %rsp,%rbp
  433834:	48 83 ec 10          	sub    $0x10,%rsp
  433838:	48 89 7d f8          	mov    %rdi,-0x8(%rbp)
  43383c:	48 8b 45 f8          	mov    -0x8(%rbp),%rax
  433840:	48 89 c7             	mov    %rax,%rdi
  433843:	e8 43 05 00 00       	callq  433d8b <std::tuple_element<1ul, std::tuple<x666::Expression*, std::default_delete<x666::Expression> > >::type& std::get<1ul, x666::Expression*, std::default_delete<x666::Expression> >(std::tuple<x666::Expression*, std::default_delete<x666::Expression> >&)>
  433848:	c9                   	leaveq 
  433849:	c3                   	retq   

000000000043384a <std::tuple_element<0ul, std::tuple<x666::Expression*, std::default_delete<x666::Expression> > >::type& std::get<0ul, x666::Expression*, std::default_delete<x666::Expression> >(std::tuple<x666::Expression*, std::default_delete<x666::Expression> >&)>:
    { return _Tuple_impl<__i, _Head, _Tail...>::_M_head(__t); }

  /// Return a reference to the ith element of a tuple.
  template<std::size_t __i, typename... _Elements>
    constexpr __tuple_element_t<__i, tuple<_Elements...>>&
    get(tuple<_Elements...>& __t) noexcept
  43384a:	55                   	push   %rbp
  43384b:	48 89 e5             	mov    %rsp,%rbp
  43384e:	48 83 ec 10          	sub    $0x10,%rsp
  433852:	48 89 7d f8          	mov    %rdi,-0x8(%rbp)
    { return std::__get_helper<__i>(__t); }
  433856:	48 8b 45 f8          	mov    -0x8(%rbp),%rax
  43385a:	48 89 c7             	mov    %rax,%rdi
  43385d:	e8 43 05 00 00       	callq  433da5 <x666::Expression*& std::__get_helper<0ul, x666::Expression*, std::default_delete<x666::Expression> >(std::_Tuple_impl<0ul, x666::Expression*, std::default_delete<x666::Expression> >&)>
  433862:	c9                   	leaveq 
  433863:	c3                   	retq   

0000000000433864 <std::allocator<std::unique_ptr<x666::Expression, std::default_delete<x666::Expression> > >::~allocator()>:
      : __allocator_base<_Tp>(__a) { }

      template<typename _Tp1>
	allocator(const allocator<_Tp1>&) throw() { }

      ~allocator() throw() { }
  433864:	55                   	push   %rbp
  433865:	48 89 e5             	mov    %rsp,%rbp
  433868:	48 83 ec 10          	sub    $0x10,%rsp
  43386c:	48 89 7d f8          	mov    %rdi,-0x8(%rbp)
  433870:	48 8b 45 f8          	mov    -0x8(%rbp),%rax
  433874:	48 89 c7             	mov    %rax,%rdi
  433877:	e8 44 05 00 00       	callq  433dc0 <__gnu_cxx::new_allocator<std::unique_ptr<x666::Expression, std::default_delete<x666::Expression> > >::~new_allocator()>
  43387c:	90                   	nop
  43387d:	c9                   	leaveq 
  43387e:	c3                   	retq   
  43387f:	90                   	nop

0000000000433880 <std::_Vector_base<std::unique_ptr<x666::Expression, std::default_delete<x666::Expression> >, std::allocator<std::unique_ptr<x666::Expression, std::default_delete<x666::Expression> > > >::_M_deallocate(std::unique_ptr<x666::Expression, std::default_delete<x666::Expression> >*, unsigned long)>:
      _M_deallocate(pointer __p, size_t __n)
  433880:	55                   	push   %rbp
  433881:	48 89 e5             	mov    %rsp,%rbp
  433884:	48 83 ec 20          	sub    $0x20,%rsp
  433888:	48 89 7d f8          	mov    %rdi,-0x8(%rbp)
  43388c:	48 89 75 f0          	mov    %rsi,-0x10(%rbp)
  433890:	48 89 55 e8          	mov    %rdx,-0x18(%rbp)
	if (__p)
  433894:	48 83 7d f0 00       	cmpq   $0x0,-0x10(%rbp)
  433899:	74 17                	je     4338b2 <std::_Vector_base<std::unique_ptr<x666::Expression, std::default_delete<x666::Expression> >, std::allocator<std::unique_ptr<x666::Expression, std::default_delete<x666::Expression> > > >::_M_deallocate(std::unique_ptr<x666::Expression, std::default_delete<x666::Expression> >*, unsigned long)+0x32>
	  _Tr::deallocate(_M_impl, __p, __n);
  43389b:	48 8b 45 f8          	mov    -0x8(%rbp),%rax
  43389f:	48 8b 55 e8          	mov    -0x18(%rbp),%rdx
  4338a3:	48 8b 4d f0          	mov    -0x10(%rbp),%rcx
  4338a7:	48 89 ce             	mov    %rcx,%rsi
  4338aa:	48 89 c7             	mov    %rax,%rdi
  4338ad:	e8 19 05 00 00       	callq  433dcb <std::allocator_traits<std::allocator<std::unique_ptr<x666::Expression, std::default_delete<x666::Expression> > > >::deallocate(std::allocator<std::unique_ptr<x666::Expression, std::default_delete<x666::Expression> > >&, std::unique_ptr<x666::Expression, std::default_delete<x666::Expression> >*, unsigned long)>
      }
  4338b2:	90                   	nop
  4338b3:	c9                   	leaveq 
  4338b4:	c3                   	retq   

00000000004338b5 <void std::_Destroy<std::unique_ptr<x666::Expression, std::default_delete<x666::Expression> >*>(std::unique_ptr<x666::Expression, std::default_delete<x666::Expression> >*, std::unique_ptr<x666::Expression, std::default_delete<x666::Expression> >*)>:
    _Destroy(_ForwardIterator __first, _ForwardIterator __last)
  4338b5:	55                   	push   %rbp
  4338b6:	48 89 e5             	mov    %rsp,%rbp
  4338b9:	48 83 ec 10          	sub    $0x10,%rsp
  4338bd:	48 89 7d f8          	mov    %rdi,-0x8(%rbp)
  4338c1:	48 89 75 f0          	mov    %rsi,-0x10(%rbp)
	__destroy(__first, __last);
  4338c5:	48 8b 55 f0          	mov    -0x10(%rbp),%rdx
  4338c9:	48 8b 45 f8          	mov    -0x8(%rbp),%rax
  4338cd:	48 89 d6             	mov    %rdx,%rsi
  4338d0:	48 89 c7             	mov    %rax,%rdi
  4338d3:	e8 2f 05 00 00       	callq  433e07 <void std::_Destroy_aux<false>::__destroy<std::unique_ptr<x666::Expression, std::default_delete<x666::Expression> >*>(std::unique_ptr<x666::Expression, std::default_delete<x666::Expression> >*, std::unique_ptr<x666::Expression, std::default_delete<x666::Expression> >*)>
    }
  4338d8:	90                   	nop
  4338d9:	c9                   	leaveq 
  4338da:	c3                   	retq   
  4338db:	90                   	nop

00000000004338dc <std::_Deque_base<std::unique_ptr<x666::Expression, std::default_delete<x666::Expression> >, std::allocator<std::unique_ptr<x666::Expression, std::default_delete<x666::Expression> > > >::_M_destroy_nodes(std::unique_ptr<x666::Expression, std::default_delete<x666::Expression> >**, std::unique_ptr<x666::Expression, std::default_delete<x666::Expression> >**)>:
    _Deque_base<_Tp, _Alloc>::
  4338dc:	55                   	push   %rbp
  4338dd:	48 89 e5             	mov    %rsp,%rbp
  4338e0:	48 83 ec 30          	sub    $0x30,%rsp
  4338e4:	48 89 7d e8          	mov    %rdi,-0x18(%rbp)
  4338e8:	48 89 75 e0          	mov    %rsi,-0x20(%rbp)
  4338ec:	48 89 55 d8          	mov    %rdx,-0x28(%rbp)
      for (_Map_pointer __n = __nstart; __n < __nfinish; ++__n)
  4338f0:	48 8b 45 e0          	mov    -0x20(%rbp),%rax
  4338f4:	48 89 45 f8          	mov    %rax,-0x8(%rbp)
  4338f8:	48 8b 45 f8          	mov    -0x8(%rbp),%rax
  4338fc:	48 3b 45 d8          	cmp    -0x28(%rbp),%rax
  433900:	73 1d                	jae    43391f <std::_Deque_base<std::unique_ptr<x666::Expression, std::default_delete<x666::Expression> >, std::allocator<std::unique_ptr<x666::Expression, std::default_delete<x666::Expression> > > >::_M_destroy_nodes(std::unique_ptr<x666::Expression, std::default_delete<x666::Expression> >**, std::unique_ptr<x666::Expression, std::default_delete<x666::Expression> >**)+0x43>
	_M_deallocate_node(*__n);
  433902:	48 8b 45 f8          	mov    -0x8(%rbp),%rax
  433906:	48 8b 10             	mov    (%rax),%rdx
  433909:	48 8b 45 e8          	mov    -0x18(%rbp),%rax
  43390d:	48 89 d6             	mov    %rdx,%rsi
  433910:	48 89 c7             	mov    %rax,%rdi
  433913:	e8 28 05 00 00       	callq  433e40 <std::_Deque_base<std::unique_ptr<x666::Expression, std::default_delete<x666::Expression> >, std::allocator<std::unique_ptr<x666::Expression, std::default_delete<x666::Expression> > > >::_M_deallocate_node(std::unique_ptr<x666::Expression, std::default_delete<x666::Expression> >*)>
      for (_Map_pointer __n = __nstart; __n < __nfinish; ++__n)
  433918:	48 83 45 f8 08       	addq   $0x8,-0x8(%rbp)
  43391d:	eb d9                	jmp    4338f8 <std::_Deque_base<std::unique_ptr<x666::Expression, std::default_delete<x666::Expression> >, std::allocator<std::unique_ptr<x666::Expression, std::default_delete<x666::Expression> > > >::_M_destroy_nodes(std::unique_ptr<x666::Expression, std::default_delete<x666::Expression> >**, std::unique_ptr<x666::Expression, std::default_delete<x666::Expression> >**)+0x1c>
    }
  43391f:	90                   	nop
  433920:	c9                   	leaveq 
  433921:	c3                   	retq   

0000000000433922 <std::_Deque_base<std::unique_ptr<x666::Expression, std::default_delete<x666::Expression> >, std::allocator<std::unique_ptr<x666::Expression, std::default_delete<x666::Expression> > > >::_M_deallocate_map(std::unique_ptr<x666::Expression, std::default_delete<x666::Expression> >**, unsigned long)>:
      _M_deallocate_map(_Map_pointer __p, size_t __n) _GLIBCXX_NOEXCEPT
  433922:	55                   	push   %rbp
  433923:	48 89 e5             	mov    %rsp,%rbp
  433926:	48 83 ec 30          	sub    $0x30,%rsp
  43392a:	48 89 7d e8          	mov    %rdi,-0x18(%rbp)
  43392e:	48 89 75 e0          	mov    %rsi,-0x20(%rbp)
  433932:	48 89 55 d8          	mov    %rdx,-0x28(%rbp)
	_Map_alloc_type __map_alloc = _M_get_map_allocator();
  433936:	48 8d 45 ff          	lea    -0x1(%rbp),%rax
  43393a:	48 8b 55 e8          	mov    -0x18(%rbp),%rdx
  43393e:	48 89 d6             	mov    %rdx,%rsi
  433941:	48 89 c7             	mov    %rax,%rdi
  433944:	e8 2b 05 00 00       	callq  433e74 <std::_Deque_base<std::unique_ptr<x666::Expression, std::default_delete<x666::Expression> >, std::allocator<std::unique_ptr<x666::Expression, std::default_delete<x666::Expression> > > >::_M_get_map_allocator() const>
	_Map_alloc_traits::deallocate(__map_alloc, __p, __n);
  433949:	48 8b 55 d8          	mov    -0x28(%rbp),%rdx
  43394d:	48 8b 4d e0          	mov    -0x20(%rbp),%rcx
  433951:	48 8d 45 ff          	lea    -0x1(%rbp),%rax
  433955:	48 89 ce             	mov    %rcx,%rsi
  433958:	48 89 c7             	mov    %rax,%rdi
  43395b:	e8 63 05 00 00       	callq  433ec3 <std::allocator_traits<std::allocator<std::unique_ptr<x666::Expression, std::default_delete<x666::Expression> >*> >::deallocate(std::allocator<std::unique_ptr<x666::Expression, std::default_delete<x666::Expression> >*>&, std::unique_ptr<x666::Expression, std::default_delete<x666::Expression> >**, unsigned long)>
	_Map_alloc_type __map_alloc = _M_get_map_allocator();
  433960:	48 8d 45 ff          	lea    -0x1(%rbp),%rax
  433964:	48 89 c7             	mov    %rax,%rdi
  433967:	e8 3c 05 00 00       	callq  433ea8 <std::allocator<std::unique_ptr<x666::Expression, std::default_delete<x666::Expression> >*>::~allocator()>
      }
  43396c:	90                   	nop
  43396d:	c9                   	leaveq 
  43396e:	c3                   	retq   
  43396f:	90                   	nop

0000000000433970 <std::_Deque_iterator<std::unique_ptr<x666::Expression, std::default_delete<x666::Expression> >, std::unique_ptr<x666::Expression, std::default_delete<x666::Expression> >&, std::unique_ptr<x666::Expression, std::default_delete<x666::Expression> >*>::_Deque_iterator(std::_Deque_iterator<std::unique_ptr<x666::Expression, std::default_delete<x666::Expression> >, std::unique_ptr<x666::Expression, std::default_delete<x666::Expression> >&, std::unique_ptr<x666::Expression, std::default_delete<x666::Expression> >*> const&)>:
      _Deque_iterator(const iterator& __x) _GLIBCXX_NOEXCEPT
  433970:	55                   	push   %rbp
  433971:	48 89 e5             	mov    %rsp,%rbp
  433974:	48 89 7d f8          	mov    %rdi,-0x8(%rbp)
  433978:	48 89 75 f0          	mov    %rsi,-0x10(%rbp)
      : _M_cur(__x._M_cur), _M_first(__x._M_first),
  43397c:	48 8b 45 f0          	mov    -0x10(%rbp),%rax
  433980:	48 8b 10             	mov    (%rax),%rdx
	_M_last(__x._M_last), _M_node(__x._M_node) { }
  433983:	48 8b 45 f8          	mov    -0x8(%rbp),%rax
  433987:	48 89 10             	mov    %rdx,(%rax)
      : _M_cur(__x._M_cur), _M_first(__x._M_first),
  43398a:	48 8b 45 f0          	mov    -0x10(%rbp),%rax
  43398e:	48 8b 50 08          	mov    0x8(%rax),%rdx
	_M_last(__x._M_last), _M_node(__x._M_node) { }
  433992:	48 8b 45 f8          	mov    -0x8(%rbp),%rax
  433996:	48 89 50 08          	mov    %rdx,0x8(%rax)
  43399a:	48 8b 45 f0          	mov    -0x10(%rbp),%rax
  43399e:	48 8b 50 10          	mov    0x10(%rax),%rdx
  4339a2:	48 8b 45 f8          	mov    -0x8(%rbp),%rax
  4339a6:	48 89 50 10          	mov    %rdx,0x10(%rax)
  4339aa:	48 8b 45 f0          	mov    -0x10(%rbp),%rax
  4339ae:	48 8b 50 18          	mov    0x18(%rax),%rdx
  4339b2:	48 8b 45 f8          	mov    -0x8(%rbp),%rax
  4339b6:	48 89 50 18          	mov    %rdx,0x18(%rax)
  4339ba:	90                   	nop
  4339bb:	5d                   	pop    %rbp
  4339bc:	c3                   	retq   
  4339bd:	90                   	nop

00000000004339be <std::deque<std::unique_ptr<x666::Expression, std::default_delete<x666::Expression> >, std::allocator<std::unique_ptr<x666::Expression, std::default_delete<x666::Expression> > > >::_M_destroy_data_aux(std::_Deque_iterator<std::unique_ptr<x666::Expression, std::default_delete<x666::Expression> >, std::unique_ptr<x666::Expression, std::default_delete<x666::Expression> >&, std::unique_ptr<x666::Expression, std::default_delete<x666::Expression> >*>, std::_Deque_iterator<std::unique_ptr<x666::Expression, std::default_delete<x666::Expression> >, std::unique_ptr<x666::Expression, std::default_delete<x666::Expression> >&, std::unique_ptr<x666::Expression, std::default_delete<x666::Expression> >*>)>:
        }
      }

   template<typename _Tp, typename _Alloc>
     void
     deque<_Tp, _Alloc>::
  4339be:	55                   	push   %rbp
  4339bf:	48 89 e5             	mov    %rsp,%rbp
  4339c2:	41 54                	push   %r12
  4339c4:	53                   	push   %rbx
  4339c5:	48 83 ec 30          	sub    $0x30,%rsp
  4339c9:	48 89 7d d8          	mov    %rdi,-0x28(%rbp)
  4339cd:	48 89 75 d0          	mov    %rsi,-0x30(%rbp)
  4339d1:	48 89 55 c8          	mov    %rdx,-0x38(%rbp)
     _M_destroy_data_aux(iterator __first, iterator __last)
     {
       for (_Map_pointer __node = __first._M_node + 1;
  4339d5:	48 8b 45 d0          	mov    -0x30(%rbp),%rax
  4339d9:	48 8b 40 18          	mov    0x18(%rax),%rax
  4339dd:	48 83 c0 08          	add    $0x8,%rax
  4339e1:	48 89 45 e8          	mov    %rax,-0x18(%rbp)
	    __node < __last._M_node; ++__node)
  4339e5:	48 8b 45 c8          	mov    -0x38(%rbp),%rax
  4339e9:	48 8b 40 18          	mov    0x18(%rax),%rax
  4339ed:	48 39 45 e8          	cmp    %rax,-0x18(%rbp)
  4339f1:	73 3f                	jae    433a32 <std::deque<std::unique_ptr<x666::Expression, std::default_delete<x666::Expression> >, std::allocator<std::unique_ptr<x666::Expression, std::default_delete<x666::Expression> > > >::_M_destroy_data_aux(std::_Deque_iterator<std::unique_ptr<x666::Expression, std::default_delete<x666::Expression> >, std::unique_ptr<x666::Expression, std::default_delete<x666::Expression> >&, std::unique_ptr<x666::Expression, std::default_delete<x666::Expression> >*>, std::_Deque_iterator<std::unique_ptr<x666::Expression, std::default_delete<x666::Expression> >, std::unique_ptr<x666::Expression, std::default_delete<x666::Expression> >&, std::unique_ptr<x666::Expression, std::default_delete<x666::Expression> >*>)+0x74>
	 std::_Destroy(*__node, *__node + _S_buffer_size(),
		       _M_get_Tp_allocator());
  4339f3:	48 8b 45 d8          	mov    -0x28(%rbp),%rax
  4339f7:	48 89 c7             	mov    %rax,%rdi
  4339fa:	e8 f9 f9 ff ff       	callq  4333f8 <std::_Deque_base<std::unique_ptr<x666::Expression, std::default_delete<x666::Expression> >, std::allocator<std::unique_ptr<x666::Expression, std::default_delete<x666::Expression> > > >::_M_get_Tp_allocator()>
  4339ff:	49 89 c4             	mov    %rax,%r12
	 std::_Destroy(*__node, *__node + _S_buffer_size(),
  433a02:	48 8b 45 e8          	mov    -0x18(%rbp),%rax
  433a06:	48 8b 18             	mov    (%rax),%rbx
  433a09:	e8 e3 04 00 00       	callq  433ef1 <std::deque<std::unique_ptr<x666::Expression, std::default_delete<x666::Expression> >, std::allocator<std::unique_ptr<x666::Expression, std::default_delete<x666::Expression> > > >::_S_buffer_size()>
  433a0e:	48 c1 e0 03          	shl    $0x3,%rax
  433a12:	48 8d 0c 03          	lea    (%rbx,%rax,1),%rcx
  433a16:	48 8b 45 e8          	mov    -0x18(%rbp),%rax
  433a1a:	48 8b 00             	mov    (%rax),%rax
  433a1d:	4c 89 e2             	mov    %r12,%rdx
  433a20:	48 89 ce             	mov    %rcx,%rsi
  433a23:	48 89 c7             	mov    %rax,%rdi
  433a26:	e8 c3 f8 ff ff       	callq  4332ee <void std::_Destroy<std::unique_ptr<x666::Expression, std::default_delete<x666::Expression> >*, std::unique_ptr<x666::Expression, std::default_delete<x666::Expression> > >(std::unique_ptr<x666::Expression, std::default_delete<x666::Expression> >*, std::unique_ptr<x666::Expression, std::default_delete<x666::Expression> >*, std::allocator<std::unique_ptr<x666::Expression, std::default_delete<x666::Expression> > >&)>
       for (_Map_pointer __node = __first._M_node + 1;
  433a2b:	48 83 45 e8 08       	addq   $0x8,-0x18(%rbp)
  433a30:	eb b3                	jmp    4339e5 <std::deque<std::unique_ptr<x666::Expression, std::default_delete<x666::Expression> >, std::allocator<std::unique_ptr<x666::Expression, std::default_delete<x666::Expression> > > >::_M_destroy_data_aux(std::_Deque_iterator<std::unique_ptr<x666::Expression, std::default_delete<x666::Expression> >, std::unique_ptr<x666::Expression, std::default_delete<x666::Expression> >&, std::unique_ptr<x666::Expression, std::default_delete<x666::Expression> >*>, std::_Deque_iterator<std::unique_ptr<x666::Expression, std::default_delete<x666::Expression> >, std::unique_ptr<x666::Expression, std::default_delete<x666::Expression> >&, std::unique_ptr<x666::Expression, std::default_delete<x666::Expression> >*>)+0x27>

       if (__first._M_node != __last._M_node)
  433a32:	48 8b 45 d0          	mov    -0x30(%rbp),%rax
  433a36:	48 8b 50 18          	mov    0x18(%rax),%rdx
  433a3a:	48 8b 45 c8          	mov    -0x38(%rbp),%rax
  433a3e:	48 8b 40 18          	mov    0x18(%rax),%rax
  433a42:	48 39 c2             	cmp    %rax,%rdx
  433a45:	74 54                	je     433a9b <std::deque<std::unique_ptr<x666::Expression, std::default_delete<x666::Expression> >, std::allocator<std::unique_ptr<x666::Expression, std::default_delete<x666::Expression> > > >::_M_destroy_data_aux(std::_Deque_iterator<std::unique_ptr<x666::Expression, std::default_delete<x666::Expression> >, std::unique_ptr<x666::Expression, std::default_delete<x666::Expression> >&, std::unique_ptr<x666::Expression, std::default_delete<x666::Expression> >*>, std::_Deque_iterator<std::unique_ptr<x666::Expression, std::default_delete<x666::Expression> >, std::unique_ptr<x666::Expression, std::default_delete<x666::Expression> >&, std::unique_ptr<x666::Expression, std::default_delete<x666::Expression> >*>)+0xdd>
	 {
	   std::_Destroy(__first._M_cur, __first._M_last,
			 _M_get_Tp_allocator());
  433a47:	48 8b 45 d8          	mov    -0x28(%rbp),%rax
  433a4b:	48 89 c7             	mov    %rax,%rdi
  433a4e:	e8 a5 f9 ff ff       	callq  4333f8 <std::_Deque_base<std::unique_ptr<x666::Expression, std::default_delete<x666::Expression> >, std::allocator<std::unique_ptr<x666::Expression, std::default_delete<x666::Expression> > > >::_M_get_Tp_allocator()>
  433a53:	48 89 c2             	mov    %rax,%rdx
	   std::_Destroy(__first._M_cur, __first._M_last,
  433a56:	48 8b 45 d0          	mov    -0x30(%rbp),%rax
  433a5a:	48 8b 48 10          	mov    0x10(%rax),%rcx
  433a5e:	48 8b 45 d0          	mov    -0x30(%rbp),%rax
  433a62:	48 8b 00             	mov    (%rax),%rax
  433a65:	48 89 ce             	mov    %rcx,%rsi
  433a68:	48 89 c7             	mov    %rax,%rdi
  433a6b:	e8 7e f8 ff ff       	callq  4332ee <void std::_Destroy<std::unique_ptr<x666::Expression, std::default_delete<x666::Expression> >*, std::unique_ptr<x666::Expression, std::default_delete<x666::Expression> > >(std::unique_ptr<x666::Expression, std::default_delete<x666::Expression> >*, std::unique_ptr<x666::Expression, std::default_delete<x666::Expression> >*, std::allocator<std::unique_ptr<x666::Expression, std::default_delete<x666::Expression> > >&)>
	   std::_Destroy(__last._M_first, __last._M_cur,
			 _M_get_Tp_allocator());
  433a70:	48 8b 45 d8          	mov    -0x28(%rbp),%rax
  433a74:	48 89 c7             	mov    %rax,%rdi
  433a77:	e8 7c f9 ff ff       	callq  4333f8 <std::_Deque_base<std::unique_ptr<x666::Expression, std::default_delete<x666::Expression> >, std::allocator<std::unique_ptr<x666::Expression, std::default_delete<x666::Expression> > > >::_M_get_Tp_allocator()>
  433a7c:	48 89 c2             	mov    %rax,%rdx
	   std::_Destroy(__last._M_first, __last._M_cur,
  433a7f:	48 8b 45 c8          	mov    -0x38(%rbp),%rax
  433a83:	48 8b 08             	mov    (%rax),%rcx
  433a86:	48 8b 45 c8          	mov    -0x38(%rbp),%rax
  433a8a:	48 8b 40 08          	mov    0x8(%rax),%rax
  433a8e:	48 89 ce             	mov    %rcx,%rsi
  433a91:	48 89 c7             	mov    %rax,%rdi
  433a94:	e8 55 f8 ff ff       	callq  4332ee <void std::_Destroy<std::unique_ptr<x666::Expression, std::default_delete<x666::Expression> >*, std::unique_ptr<x666::Expression, std::default_delete<x666::Expression> > >(std::unique_ptr<x666::Expression, std::default_delete<x666::Expression> >*, std::unique_ptr<x666::Expression, std::default_delete<x666::Expression> >*, std::allocator<std::unique_ptr<x666::Expression, std::default_delete<x666::Expression> > >&)>
	 }
       else
	 std::_Destroy(__first._M_cur, __last._M_cur,
		       _M_get_Tp_allocator());
     }
  433a99:	eb 28                	jmp    433ac3 <std::deque<std::unique_ptr<x666::Expression, std::default_delete<x666::Expression> >, std::allocator<std::unique_ptr<x666::Expression, std::default_delete<x666::Expression> > > >::_M_destroy_data_aux(std::_Deque_iterator<std::unique_ptr<x666::Expression, std::default_delete<x666::Expression> >, std::unique_ptr<x666::Expression, std::default_delete<x666::Expression> >&, std::unique_ptr<x666::Expression, std::default_delete<x666::Expression> >*>, std::_Deque_iterator<std::unique_ptr<x666::Expression, std::default_delete<x666::Expression> >, std::unique_ptr<x666::Expression, std::default_delete<x666::Expression> >&, std::unique_ptr<x666::Expression, std::default_delete<x666::Expression> >*>)+0x105>
		       _M_get_Tp_allocator());
  433a9b:	48 8b 45 d8          	mov    -0x28(%rbp),%rax
  433a9f:	48 89 c7             	mov    %rax,%rdi
  433aa2:	e8 51 f9 ff ff       	callq  4333f8 <std::_Deque_base<std::unique_ptr<x666::Expression, std::default_delete<x666::Expression> >, std::allocator<std::unique_ptr<x666::Expression, std::default_delete<x666::Expression> > > >::_M_get_Tp_allocator()>
  433aa7:	48 89 c2             	mov    %rax,%rdx
	 std::_Destroy(__first._M_cur, __last._M_cur,
  433aaa:	48 8b 45 c8          	mov    -0x38(%rbp),%rax
  433aae:	48 8b 08             	mov    (%rax),%rcx
  433ab1:	48 8b 45 d0          	mov    -0x30(%rbp),%rax
  433ab5:	48 8b 00             	mov    (%rax),%rax
  433ab8:	48 89 ce             	mov    %rcx,%rsi
  433abb:	48 89 c7             	mov    %rax,%rdi
  433abe:	e8 2b f8 ff ff       	callq  4332ee <void std::_Destroy<std::unique_ptr<x666::Expression, std::default_delete<x666::Expression> >*, std::unique_ptr<x666::Expression, std::default_delete<x666::Expression> > >(std::unique_ptr<x666::Expression, std::default_delete<x666::Expression> >*, std::unique_ptr<x666::Expression, std::default_delete<x666::Expression> >*, std::allocator<std::unique_ptr<x666::Expression, std::default_delete<x666::Expression> > >&)>
     }
  433ac3:	90                   	nop
  433ac4:	48 83 c4 30          	add    $0x30,%rsp
  433ac8:	5b                   	pop    %rbx
  433ac9:	41 5c                	pop    %r12
  433acb:	5d                   	pop    %rbp
  433acc:	c3                   	retq   
  433acd:	90                   	nop

0000000000433ace <std::allocator<x666::LineInfo>::~allocator()>:
  433ace:	55                   	push   %rbp
  433acf:	48 89 e5             	mov    %rsp,%rbp
  433ad2:	48 83 ec 10          	sub    $0x10,%rsp
  433ad6:	48 89 7d f8          	mov    %rdi,-0x8(%rbp)
  433ada:	48 8b 45 f8          	mov    -0x8(%rbp),%rax
  433ade:	48 89 c7             	mov    %rax,%rdi
  433ae1:	e8 1c 04 00 00       	callq  433f02 <__gnu_cxx::new_allocator<x666::LineInfo>::~new_allocator()>
  433ae6:	90                   	nop
  433ae7:	c9                   	leaveq 
  433ae8:	c3                   	retq   
  433ae9:	90                   	nop

0000000000433aea <std::_Deque_base<x666::LineInfo, std::allocator<x666::LineInfo> >::_M_destroy_nodes(x666::LineInfo**, x666::LineInfo**)>:
    _Deque_base<_Tp, _Alloc>::
  433aea:	55                   	push   %rbp
  433aeb:	48 89 e5             	mov    %rsp,%rbp
  433aee:	48 83 ec 30          	sub    $0x30,%rsp
  433af2:	48 89 7d e8          	mov    %rdi,-0x18(%rbp)
  433af6:	48 89 75 e0          	mov    %rsi,-0x20(%rbp)
  433afa:	48 89 55 d8          	mov    %rdx,-0x28(%rbp)
      for (_Map_pointer __n = __nstart; __n < __nfinish; ++__n)
  433afe:	48 8b 45 e0          	mov    -0x20(%rbp),%rax
  433b02:	48 89 45 f8          	mov    %rax,-0x8(%rbp)
  433b06:	48 8b 45 f8          	mov    -0x8(%rbp),%rax
  433b0a:	48 3b 45 d8          	cmp    -0x28(%rbp),%rax
  433b0e:	73 1d                	jae    433b2d <std::_Deque_base<x666::LineInfo, std::allocator<x666::LineInfo> >::_M_destroy_nodes(x666::LineInfo**, x666::LineInfo**)+0x43>
	_M_deallocate_node(*__n);
  433b10:	48 8b 45 f8          	mov    -0x8(%rbp),%rax
  433b14:	48 8b 10             	mov    (%rax),%rdx
  433b17:	48 8b 45 e8          	mov    -0x18(%rbp),%rax
  433b1b:	48 89 d6             	mov    %rdx,%rsi
  433b1e:	48 89 c7             	mov    %rax,%rdi
  433b21:	e8 e8 03 00 00       	callq  433f0e <std::_Deque_base<x666::LineInfo, std::allocator<x666::LineInfo> >::_M_deallocate_node(x666::LineInfo*)>
      for (_Map_pointer __n = __nstart; __n < __nfinish; ++__n)
  433b26:	48 83 45 f8 08       	addq   $0x8,-0x8(%rbp)
  433b2b:	eb d9                	jmp    433b06 <std::_Deque_base<x666::LineInfo, std::allocator<x666::LineInfo> >::_M_destroy_nodes(x666::LineInfo**, x666::LineInfo**)+0x1c>
    }
  433b2d:	90                   	nop
  433b2e:	c9                   	leaveq 
  433b2f:	c3                   	retq   

0000000000433b30 <std::_Deque_base<x666::LineInfo, std::allocator<x666::LineInfo> >::_M_deallocate_map(x666::LineInfo**, unsigned long)>:
      _M_deallocate_map(_Map_pointer __p, size_t __n) _GLIBCXX_NOEXCEPT
  433b30:	55                   	push   %rbp
  433b31:	48 89 e5             	mov    %rsp,%rbp
  433b34:	48 83 ec 30          	sub    $0x30,%rsp
  433b38:	48 89 7d e8          	mov    %rdi,-0x18(%rbp)
  433b3c:	48 89 75 e0          	mov    %rsi,-0x20(%rbp)
  433b40:	48 89 55 d8          	mov    %rdx,-0x28(%rbp)
	_Map_alloc_type __map_alloc = _M_get_map_allocator();
  433b44:	48 8d 45 ff          	lea    -0x1(%rbp),%rax
  433b48:	48 8b 55 e8          	mov    -0x18(%rbp),%rdx
  433b4c:	48 89 d6             	mov    %rdx,%rsi
  433b4f:	48 89 c7             	mov    %rax,%rdi
  433b52:	e8 eb 03 00 00       	callq  433f42 <std::_Deque_base<x666::LineInfo, std::allocator<x666::LineInfo> >::_M_get_map_allocator() const>
	_Map_alloc_traits::deallocate(__map_alloc, __p, __n);
  433b57:	48 8b 55 d8          	mov    -0x28(%rbp),%rdx
  433b5b:	48 8b 4d e0          	mov    -0x20(%rbp),%rcx
  433b5f:	48 8d 45 ff          	lea    -0x1(%rbp),%rax
  433b63:	48 89 ce             	mov    %rcx,%rsi
  433b66:	48 89 c7             	mov    %rax,%rdi
  433b69:	e8 23 04 00 00       	callq  433f91 <std::allocator_traits<std::allocator<x666::LineInfo*> >::deallocate(std::allocator<x666::LineInfo*>&, x666::LineInfo**, unsigned long)>
	_Map_alloc_type __map_alloc = _M_get_map_allocator();
  433b6e:	48 8d 45 ff          	lea    -0x1(%rbp),%rax
  433b72:	48 89 c7             	mov    %rax,%rdi
  433b75:	e8 fc 03 00 00       	callq  433f76 <std::allocator<x666::LineInfo*>::~allocator()>
      }
  433b7a:	90                   	nop
  433b7b:	c9                   	leaveq 
  433b7c:	c3                   	retq   
  433b7d:	90                   	nop

0000000000433b7e <std::_Deque_iterator<x666::LineInfo, x666::LineInfo&, x666::LineInfo*>::_Deque_iterator(std::_Deque_iterator<x666::LineInfo, x666::LineInfo&, x666::LineInfo*> const&)>:
      _Deque_iterator(const iterator& __x) _GLIBCXX_NOEXCEPT
  433b7e:	55                   	push   %rbp
  433b7f:	48 89 e5             	mov    %rsp,%rbp
  433b82:	48 89 7d f8          	mov    %rdi,-0x8(%rbp)
  433b86:	48 89 75 f0          	mov    %rsi,-0x10(%rbp)
      : _M_cur(__x._M_cur), _M_first(__x._M_first),
  433b8a:	48 8b 45 f0          	mov    -0x10(%rbp),%rax
  433b8e:	48 8b 10             	mov    (%rax),%rdx
	_M_last(__x._M_last), _M_node(__x._M_node) { }
  433b91:	48 8b 45 f8          	mov    -0x8(%rbp),%rax
  433b95:	48 89 10             	mov    %rdx,(%rax)
      : _M_cur(__x._M_cur), _M_first(__x._M_first),
  433b98:	48 8b 45 f0          	mov    -0x10(%rbp),%rax
  433b9c:	48 8b 50 08          	mov    0x8(%rax),%rdx
	_M_last(__x._M_last), _M_node(__x._M_node) { }
  433ba0:	48 8b 45 f8          	mov    -0x8(%rbp),%rax
  433ba4:	48 89 50 08          	mov    %rdx,0x8(%rax)
  433ba8:	48 8b 45 f0          	mov    -0x10(%rbp),%rax
  433bac:	48 8b 50 10          	mov    0x10(%rax),%rdx
  433bb0:	48 8b 45 f8          	mov    -0x8(%rbp),%rax
  433bb4:	48 89 50 10          	mov    %rdx,0x10(%rax)
  433bb8:	48 8b 45 f0          	mov    -0x10(%rbp),%rax
  433bbc:	48 8b 50 18          	mov    0x18(%rax),%rdx
  433bc0:	48 8b 45 f8          	mov    -0x8(%rbp),%rax
  433bc4:	48 89 50 18          	mov    %rdx,0x18(%rax)
  433bc8:	90                   	nop
  433bc9:	5d                   	pop    %rbp
  433bca:	c3                   	retq   
  433bcb:	90                   	nop

0000000000433bcc <std::allocator<x666::Parser::BracketEntry>::~allocator()>:
  433bcc:	55                   	push   %rbp
  433bcd:	48 89 e5             	mov    %rsp,%rbp
  433bd0:	48 83 ec 10          	sub    $0x10,%rsp
  433bd4:	48 89 7d f8          	mov    %rdi,-0x8(%rbp)
  433bd8:	48 8b 45 f8          	mov    -0x8(%rbp),%rax
  433bdc:	48 89 c7             	mov    %rax,%rdi
  433bdf:	e8 dc 03 00 00       	callq  433fc0 <__gnu_cxx::new_allocator<x666::Parser::BracketEntry>::~new_allocator()>
  433be4:	90                   	nop
  433be5:	c9                   	leaveq 
  433be6:	c3                   	retq   
  433be7:	90                   	nop

0000000000433be8 <std::_Deque_base<x666::Parser::BracketEntry, std::allocator<x666::Parser::BracketEntry> >::_M_destroy_nodes(x666::Parser::BracketEntry**, x666::Parser::BracketEntry**)>:
    _Deque_base<_Tp, _Alloc>::
  433be8:	55                   	push   %rbp
  433be9:	48 89 e5             	mov    %rsp,%rbp
  433bec:	48 83 ec 30          	sub    $0x30,%rsp
  433bf0:	48 89 7d e8          	mov    %rdi,-0x18(%rbp)
  433bf4:	48 89 75 e0          	mov    %rsi,-0x20(%rbp)
  433bf8:	48 89 55 d8          	mov    %rdx,-0x28(%rbp)
      for (_Map_pointer __n = __nstart; __n < __nfinish; ++__n)
  433bfc:	48 8b 45 e0          	mov    -0x20(%rbp),%rax
  433c00:	48 89 45 f8          	mov    %rax,-0x8(%rbp)
  433c04:	48 8b 45 f8          	mov    -0x8(%rbp),%rax
  433c08:	48 3b 45 d8          	cmp    -0x28(%rbp),%rax
  433c0c:	73 1d                	jae    433c2b <std::_Deque_base<x666::Parser::BracketEntry, std::allocator<x666::Parser::BracketEntry> >::_M_destroy_nodes(x666::Parser::BracketEntry**, x666::Parser::BracketEntry**)+0x43>
	_M_deallocate_node(*__n);
  433c0e:	48 8b 45 f8          	mov    -0x8(%rbp),%rax
  433c12:	48 8b 10             	mov    (%rax),%rdx
  433c15:	48 8b 45 e8          	mov    -0x18(%rbp),%rax
  433c19:	48 89 d6             	mov    %rdx,%rsi
  433c1c:	48 89 c7             	mov    %rax,%rdi
  433c1f:	e8 a8 03 00 00       	callq  433fcc <std::_Deque_base<x666::Parser::BracketEntry, std::allocator<x666::Parser::BracketEntry> >::_M_deallocate_node(x666::Parser::BracketEntry*)>
      for (_Map_pointer __n = __nstart; __n < __nfinish; ++__n)
  433c24:	48 83 45 f8 08       	addq   $0x8,-0x8(%rbp)
  433c29:	eb d9                	jmp    433c04 <std::_Deque_base<x666::Parser::BracketEntry, std::allocator<x666::Parser::BracketEntry> >::_M_destroy_nodes(x666::Parser::BracketEntry**, x666::Parser::BracketEntry**)+0x1c>
    }
  433c2b:	90                   	nop
  433c2c:	c9                   	leaveq 
  433c2d:	c3                   	retq   

0000000000433c2e <std::_Deque_base<x666::Parser::BracketEntry, std::allocator<x666::Parser::BracketEntry> >::_M_deallocate_map(x666::Parser::BracketEntry**, unsigned long)>:
      _M_deallocate_map(_Map_pointer __p, size_t __n) _GLIBCXX_NOEXCEPT
  433c2e:	55                   	push   %rbp
  433c2f:	48 89 e5             	mov    %rsp,%rbp
  433c32:	48 83 ec 30          	sub    $0x30,%rsp
  433c36:	48 89 7d e8          	mov    %rdi,-0x18(%rbp)
  433c3a:	48 89 75 e0          	mov    %rsi,-0x20(%rbp)
  433c3e:	48 89 55 d8          	mov    %rdx,-0x28(%rbp)
	_Map_alloc_type __map_alloc = _M_get_map_allocator();
  433c42:	48 8d 45 ff          	lea    -0x1(%rbp),%rax
  433c46:	48 8b 55 e8          	mov    -0x18(%rbp),%rdx
  433c4a:	48 89 d6             	mov    %rdx,%rsi
  433c4d:	48 89 c7             	mov    %rax,%rdi
  433c50:	e8 ab 03 00 00       	callq  434000 <std::_Deque_base<x666::Parser::BracketEntry, std::allocator<x666::Parser::BracketEntry> >::_M_get_map_allocator() const>
	_Map_alloc_traits::deallocate(__map_alloc, __p, __n);
  433c55:	48 8b 55 d8          	mov    -0x28(%rbp),%rdx
  433c59:	48 8b 4d e0          	mov    -0x20(%rbp),%rcx
  433c5d:	48 8d 45 ff          	lea    -0x1(%rbp),%rax
  433c61:	48 89 ce             	mov    %rcx,%rsi
  433c64:	48 89 c7             	mov    %rax,%rdi
  433c67:	e8 e3 03 00 00       	callq  43404f <std::allocator_traits<std::allocator<x666::Parser::BracketEntry*> >::deallocate(std::allocator<x666::Parser::BracketEntry*>&, x666::Parser::BracketEntry**, unsigned long)>
	_Map_alloc_type __map_alloc = _M_get_map_allocator();
  433c6c:	48 8d 45 ff          	lea    -0x1(%rbp),%rax
  433c70:	48 89 c7             	mov    %rax,%rdi
  433c73:	e8 bc 03 00 00       	callq  434034 <std::allocator<x666::Parser::BracketEntry*>::~allocator()>
      }
  433c78:	90                   	nop
  433c79:	c9                   	leaveq 
  433c7a:	c3                   	retq   
  433c7b:	90                   	nop

0000000000433c7c <std::_Deque_iterator<x666::Parser::BracketEntry, x666::Parser::BracketEntry&, x666::Parser::BracketEntry*>::_Deque_iterator(std::_Deque_iterator<x666::Parser::BracketEntry, x666::Parser::BracketEntry&, x666::Parser::BracketEntry*> const&)>:
      _Deque_iterator(const iterator& __x) _GLIBCXX_NOEXCEPT
  433c7c:	55                   	push   %rbp
  433c7d:	48 89 e5             	mov    %rsp,%rbp
  433c80:	48 89 7d f8          	mov    %rdi,-0x8(%rbp)
  433c84:	48 89 75 f0          	mov    %rsi,-0x10(%rbp)
      : _M_cur(__x._M_cur), _M_first(__x._M_first),
  433c88:	48 8b 45 f0          	mov    -0x10(%rbp),%rax
  433c8c:	48 8b 10             	mov    (%rax),%rdx
	_M_last(__x._M_last), _M_node(__x._M_node) { }
  433c8f:	48 8b 45 f8          	mov    -0x8(%rbp),%rax
  433c93:	48 89 10             	mov    %rdx,(%rax)
      : _M_cur(__x._M_cur), _M_first(__x._M_first),
  433c96:	48 8b 45 f0          	mov    -0x10(%rbp),%rax
  433c9a:	48 8b 50 08          	mov    0x8(%rax),%rdx
	_M_last(__x._M_last), _M_node(__x._M_node) { }
  433c9e:	48 8b 45 f8          	mov    -0x8(%rbp),%rax
  433ca2:	48 89 50 08          	mov    %rdx,0x8(%rax)
  433ca6:	48 8b 45 f0          	mov    -0x10(%rbp),%rax
  433caa:	48 8b 50 10          	mov    0x10(%rax),%rdx
  433cae:	48 8b 45 f8          	mov    -0x8(%rbp),%rax
  433cb2:	48 89 50 10          	mov    %rdx,0x10(%rax)
  433cb6:	48 8b 45 f0          	mov    -0x10(%rbp),%rax
  433cba:	48 8b 50 18          	mov    0x18(%rax),%rdx
  433cbe:	48 8b 45 f8          	mov    -0x8(%rbp),%rax
  433cc2:	48 89 50 18          	mov    %rdx,0x18(%rax)
  433cc6:	90                   	nop
  433cc7:	5d                   	pop    %rbp
  433cc8:	c3                   	retq   
  433cc9:	90                   	nop

0000000000433cca <std::allocator<x666::LexError>::~allocator()>:
  433cca:	55                   	push   %rbp
  433ccb:	48 89 e5             	mov    %rsp,%rbp
  433cce:	48 83 ec 10          	sub    $0x10,%rsp
  433cd2:	48 89 7d f8          	mov    %rdi,-0x8(%rbp)
  433cd6:	48 8b 45 f8          	mov    -0x8(%rbp),%rax
  433cda:	48 89 c7             	mov    %rax,%rdi
  433cdd:	e8 9c 03 00 00       	callq  43407e <__gnu_cxx::new_allocator<x666::LexError>::~new_allocator()>
  433ce2:	90                   	nop
  433ce3:	c9                   	leaveq 
  433ce4:	c3                   	retq   
  433ce5:	90                   	nop

0000000000433ce6 <std::_Vector_base<x666::LexError, std::allocator<x666::LexError> >::_M_deallocate(x666::LexError*, unsigned long)>:
      _M_deallocate(pointer __p, size_t __n)
  433ce6:	55                   	push   %rbp
  433ce7:	48 89 e5             	mov    %rsp,%rbp
  433cea:	48 83 ec 20          	sub    $0x20,%rsp
  433cee:	48 89 7d f8          	mov    %rdi,-0x8(%rbp)
  433cf2:	48 89 75 f0          	mov    %rsi,-0x10(%rbp)
  433cf6:	48 89 55 e8          	mov    %rdx,-0x18(%rbp)
	if (__p)
  433cfa:	48 83 7d f0 00       	cmpq   $0x0,-0x10(%rbp)
  433cff:	74 17                	je     433d18 <std::_Vector_base<x666::LexError, std::allocator<x666::LexError> >::_M_deallocate(x666::LexError*, unsigned long)+0x32>
	  _Tr::deallocate(_M_impl, __p, __n);
  433d01:	48 8b 45 f8          	mov    -0x8(%rbp),%rax
  433d05:	48 8b 55 e8          	mov    -0x18(%rbp),%rdx
  433d09:	48 8b 4d f0          	mov    -0x10(%rbp),%rcx
  433d0d:	48 89 ce             	mov    %rcx,%rsi
  433d10:	48 89 c7             	mov    %rax,%rdi
  433d13:	e8 71 03 00 00       	callq  434089 <std::allocator_traits<std::allocator<x666::LexError> >::deallocate(std::allocator<x666::LexError>&, x666::LexError*, unsigned long)>
      }
  433d18:	90                   	nop
  433d19:	c9                   	leaveq 
  433d1a:	c3                   	retq   

0000000000433d1b <void std::_Destroy<x666::LexError*>(x666::LexError*, x666::LexError*)>:
    _Destroy(_ForwardIterator __first, _ForwardIterator __last)
  433d1b:	55                   	push   %rbp
  433d1c:	48 89 e5             	mov    %rsp,%rbp
  433d1f:	48 83 ec 10          	sub    $0x10,%rsp
  433d23:	48 89 7d f8          	mov    %rdi,-0x8(%rbp)
  433d27:	48 89 75 f0          	mov    %rsi,-0x10(%rbp)
	__destroy(__first, __last);
  433d2b:	48 8b 55 f0          	mov    -0x10(%rbp),%rdx
  433d2f:	48 8b 45 f8          	mov    -0x8(%rbp),%rax
  433d33:	48 89 d6             	mov    %rdx,%rsi
  433d36:	48 89 c7             	mov    %rax,%rdi
  433d39:	e8 79 03 00 00       	callq  4340b7 <void std::_Destroy_aux<true>::__destroy<x666::LexError*>(x666::LexError*, x666::LexError*)>
    }
  433d3e:	90                   	nop
  433d3f:	c9                   	leaveq 
  433d40:	c3                   	retq   
  433d41:	90                   	nop

0000000000433d42 <__gnu_cxx::__normal_iterator<x666::LexError const*, std::vector<x666::LexError, std::allocator<x666::LexError> > >::__normal_iterator(x666::LexError const* const&)>:
      __normal_iterator(const _Iterator& __i) _GLIBCXX_NOEXCEPT
  433d42:	55                   	push   %rbp
  433d43:	48 89 e5             	mov    %rsp,%rbp
  433d46:	48 89 7d f8          	mov    %rdi,-0x8(%rbp)
  433d4a:	48 89 75 f0          	mov    %rsi,-0x10(%rbp)
      : _M_current(__i) { }
  433d4e:	48 8b 45 f0          	mov    -0x10(%rbp),%rax
  433d52:	48 8b 10             	mov    (%rax),%rdx
  433d55:	48 8b 45 f8          	mov    -0x8(%rbp),%rax
  433d59:	48 89 10             	mov    %rdx,(%rax)
  433d5c:	90                   	nop
  433d5d:	5d                   	pop    %rbp
  433d5e:	c3                   	retq   
  433d5f:	90                   	nop

0000000000433d60 <__gnu_cxx::__normal_iterator<x666::LexError const*, std::vector<x666::LexError, std::allocator<x666::LexError> > >::base() const>:
      base() const _GLIBCXX_NOEXCEPT
  433d60:	55                   	push   %rbp
  433d61:	48 89 e5             	mov    %rsp,%rbp
  433d64:	48 89 7d f8          	mov    %rdi,-0x8(%rbp)
      { return _M_current; }
  433d68:	48 8b 45 f8          	mov    -0x8(%rbp),%rax
  433d6c:	5d                   	pop    %rbp
  433d6d:	c3                   	retq   

0000000000433d6e <std::__uniq_ptr_impl<x666::Expression, std::default_delete<x666::Expression> >::_M_ptr() const>:
      pointer    _M_ptr() const { return std::get<0>(_M_t); }
  433d6e:	55                   	push   %rbp
  433d6f:	48 89 e5             	mov    %rsp,%rbp
  433d72:	48 83 ec 10          	sub    $0x10,%rsp
  433d76:	48 89 7d f8          	mov    %rdi,-0x8(%rbp)
  433d7a:	48 8b 45 f8          	mov    -0x8(%rbp),%rax
  433d7e:	48 89 c7             	mov    %rax,%rdi
  433d81:	e8 40 03 00 00       	callq  4340c6 <std::tuple_element<0ul, std::tuple<x666::Expression*, std::default_delete<x666::Expression> > >::type const& std::get<0ul, x666::Expression*, std::default_delete<x666::Expression> >(std::tuple<x666::Expression*, std::default_delete<x666::Expression> > const&)>
  433d86:	48 8b 00             	mov    (%rax),%rax
  433d89:	c9                   	leaveq 
  433d8a:	c3                   	retq   

0000000000433d8b <std::tuple_element<1ul, std::tuple<x666::Expression*, std::default_delete<x666::Expression> > >::type& std::get<1ul, x666::Expression*, std::default_delete<x666::Expression> >(std::tuple<x666::Expression*, std::default_delete<x666::Expression> >&)>:
    get(tuple<_Elements...>& __t) noexcept
  433d8b:	55                   	push   %rbp
  433d8c:	48 89 e5             	mov    %rsp,%rbp
  433d8f:	48 83 ec 10          	sub    $0x10,%rsp
  433d93:	48 89 7d f8          	mov    %rdi,-0x8(%rbp)
    { return std::__get_helper<__i>(__t); }
  433d97:	48 8b 45 f8          	mov    -0x8(%rbp),%rax
  433d9b:	48 89 c7             	mov    %rax,%rdi
  433d9e:	e8 3d 03 00 00       	callq  4340e0 <std::default_delete<x666::Expression>& std::__get_helper<1ul, std::default_delete<x666::Expression>>(std::_Tuple_impl<1ul, std::default_delete<x666::Expression>>&)>
  433da3:	c9                   	leaveq 
  433da4:	c3                   	retq   

0000000000433da5 <x666::Expression*& std::__get_helper<0ul, x666::Expression*, std::default_delete<x666::Expression> >(std::_Tuple_impl<0ul, x666::Expression*, std::default_delete<x666::Expression> >&)>:
    __get_helper(_Tuple_impl<__i, _Head, _Tail...>& __t) noexcept
  433da5:	55                   	push   %rbp
  433da6:	48 89 e5             	mov    %rsp,%rbp
  433da9:	48 83 ec 10          	sub    $0x10,%rsp
  433dad:	48 89 7d f8          	mov    %rdi,-0x8(%rbp)
    { return _Tuple_impl<__i, _Head, _Tail...>::_M_head(__t); }
  433db1:	48 8b 45 f8          	mov    -0x8(%rbp),%rax
  433db5:	48 89 c7             	mov    %rax,%rdi
  433db8:	e8 3d 03 00 00       	callq  4340fa <std::_Tuple_impl<0ul, x666::Expression*, std::default_delete<x666::Expression> >::_M_head(std::_Tuple_impl<0ul, x666::Expression*, std::default_delete<x666::Expression> >&)>
  433dbd:	c9                   	leaveq 
  433dbe:	c3                   	retq   
  433dbf:	90                   	nop

0000000000433dc0 <__gnu_cxx::new_allocator<std::unique_ptr<x666::Expression, std::default_delete<x666::Expression> > >::~new_allocator()>:
      new_allocator(const new_allocator&) _GLIBCXX_USE_NOEXCEPT { }

      template<typename _Tp1>
	new_allocator(const new_allocator<_Tp1>&) _GLIBCXX_USE_NOEXCEPT { }

      ~new_allocator() _GLIBCXX_USE_NOEXCEPT { }
  433dc0:	55                   	push   %rbp
  433dc1:	48 89 e5             	mov    %rsp,%rbp
  433dc4:	48 89 7d f8          	mov    %rdi,-0x8(%rbp)
  433dc8:	90                   	nop
  433dc9:	5d                   	pop    %rbp
  433dca:	c3                   	retq   

0000000000433dcb <std::allocator_traits<std::allocator<std::unique_ptr<x666::Expression, std::default_delete<x666::Expression> > > >::deallocate(std::allocator<std::unique_ptr<x666::Expression, std::default_delete<x666::Expression> > >&, std::unique_ptr<x666::Expression, std::default_delete<x666::Expression> >*, unsigned long)>:
       *  @param  __n  The number of objects space was allocated for.
       *
       *  Calls <tt> a.deallocate(p, n) </tt>
      */
      static void
      deallocate(allocator_type& __a, pointer __p, size_type __n)
  433dcb:	55                   	push   %rbp
  433dcc:	48 89 e5             	mov    %rsp,%rbp
  433dcf:	48 83 ec 20          	sub    $0x20,%rsp
  433dd3:	48 89 7d f8          	mov    %rdi,-0x8(%rbp)
  433dd7:	48 89 75 f0          	mov    %rsi,-0x10(%rbp)
  433ddb:	48 89 55 e8          	mov    %rdx,-0x18(%rbp)
      { __a.deallocate(__p, __n); }
  433ddf:	48 8b 55 e8          	mov    -0x18(%rbp),%rdx
  433de3:	48 8b 4d f0          	mov    -0x10(%rbp),%rcx
  433de7:	48 8b 45 f8          	mov    -0x8(%rbp),%rax
  433deb:	48 89 ce             	mov    %rcx,%rsi
  433dee:	48 89 c7             	mov    %rax,%rdi
  433df1:	e8 1e 03 00 00       	callq  434114 <__gnu_cxx::new_allocator<std::unique_ptr<x666::Expression, std::default_delete<x666::Expression> > >::deallocate(std::unique_ptr<x666::Expression, std::default_delete<x666::Expression> >*, unsigned long)>
  433df6:	90                   	nop
  433df7:	c9                   	leaveq 
  433df8:	c3                   	retq   

0000000000433df9 <std::unique_ptr<x666::Expression, std::default_delete<x666::Expression> >* std::__addressof<std::unique_ptr<x666::Expression, std::default_delete<x666::Expression> > >(std::unique_ptr<x666::Expression, std::default_delete<x666::Expression> >&)>:
   *  @brief Same as C++11 std::addressof
   *  @ingroup utilities
   */
  template<typename _Tp>
    inline _GLIBCXX_CONSTEXPR _Tp*
    __addressof(_Tp& __r) _GLIBCXX_NOEXCEPT
  433df9:	55                   	push   %rbp
  433dfa:	48 89 e5             	mov    %rsp,%rbp
  433dfd:	48 89 7d f8          	mov    %rdi,-0x8(%rbp)
    { return __builtin_addressof(__r); }
  433e01:	48 8b 45 f8          	mov    -0x8(%rbp),%rax
  433e05:	5d                   	pop    %rbp
  433e06:	c3                   	retq   

0000000000433e07 <void std::_Destroy_aux<false>::__destroy<std::unique_ptr<x666::Expression, std::default_delete<x666::Expression> >*>(std::unique_ptr<x666::Expression, std::default_delete<x666::Expression> >*, std::unique_ptr<x666::Expression, std::default_delete<x666::Expression> >*)>:
        __destroy(_ForwardIterator __first, _ForwardIterator __last)
  433e07:	55                   	push   %rbp
  433e08:	48 89 e5             	mov    %rsp,%rbp
  433e0b:	48 83 ec 10          	sub    $0x10,%rsp
  433e0f:	48 89 7d f8          	mov    %rdi,-0x8(%rbp)
  433e13:	48 89 75 f0          	mov    %rsi,-0x10(%rbp)
	  for (; __first != __last; ++__first)
  433e17:	48 8b 45 f8          	mov    -0x8(%rbp),%rax
  433e1b:	48 3b 45 f0          	cmp    -0x10(%rbp),%rax
  433e1f:	74 1b                	je     433e3c <void std::_Destroy_aux<false>::__destroy<std::unique_ptr<x666::Expression, std::default_delete<x666::Expression> >*>(std::unique_ptr<x666::Expression, std::default_delete<x666::Expression> >*, std::unique_ptr<x666::Expression, std::default_delete<x666::Expression> >*)+0x35>
	    std::_Destroy(std::__addressof(*__first));
  433e21:	48 8b 45 f8          	mov    -0x8(%rbp),%rax
  433e25:	48 89 c7             	mov    %rax,%rdi
  433e28:	e8 cc ff ff ff       	callq  433df9 <std::unique_ptr<x666::Expression, std::default_delete<x666::Expression> >* std::__addressof<std::unique_ptr<x666::Expression, std::default_delete<x666::Expression> > >(std::unique_ptr<x666::Expression, std::default_delete<x666::Expression> >&)>
  433e2d:	48 89 c7             	mov    %rax,%rdi
  433e30:	e8 01 03 00 00       	callq  434136 <void std::_Destroy<std::unique_ptr<x666::Expression, std::default_delete<x666::Expression> > >(std::unique_ptr<x666::Expression, std::default_delete<x666::Expression> >*)>
	  for (; __first != __last; ++__first)
  433e35:	48 83 45 f8 08       	addq   $0x8,-0x8(%rbp)
  433e3a:	eb db                	jmp    433e17 <void std::_Destroy_aux<false>::__destroy<std::unique_ptr<x666::Expression, std::default_delete<x666::Expression> >*>(std::unique_ptr<x666::Expression, std::default_delete<x666::Expression> >*, std::unique_ptr<x666::Expression, std::default_delete<x666::Expression> >*)+0x10>
	}
  433e3c:	90                   	nop
  433e3d:	c9                   	leaveq 
  433e3e:	c3                   	retq   
  433e3f:	90                   	nop

0000000000433e40 <std::_Deque_base<std::unique_ptr<x666::Expression, std::default_delete<x666::Expression> >, std::allocator<std::unique_ptr<x666::Expression, std::default_delete<x666::Expression> > > >::_M_deallocate_node(std::unique_ptr<x666::Expression, std::default_delete<x666::Expression> >*)>:
      _M_deallocate_node(_Ptr __p) _GLIBCXX_NOEXCEPT
  433e40:	55                   	push   %rbp
  433e41:	48 89 e5             	mov    %rsp,%rbp
  433e44:	48 83 ec 10          	sub    $0x10,%rsp
  433e48:	48 89 7d f8          	mov    %rdi,-0x8(%rbp)
  433e4c:	48 89 75 f0          	mov    %rsi,-0x10(%rbp)
	_Traits::deallocate(_M_impl, __p, __deque_buf_size(sizeof(_Tp)));
  433e50:	bf 08 00 00 00       	mov    $0x8,%edi
  433e55:	e8 d4 ee ff ff       	callq  432d2e <std::__deque_buf_size(unsigned long)>
  433e5a:	48 89 c2             	mov    %rax,%rdx
  433e5d:	48 8b 45 f8          	mov    -0x8(%rbp),%rax
  433e61:	48 8b 4d f0          	mov    -0x10(%rbp),%rcx
  433e65:	48 89 ce             	mov    %rcx,%rsi
  433e68:	48 89 c7             	mov    %rax,%rdi
  433e6b:	e8 5b ff ff ff       	callq  433dcb <std::allocator_traits<std::allocator<std::unique_ptr<x666::Expression, std::default_delete<x666::Expression> > > >::deallocate(std::allocator<std::unique_ptr<x666::Expression, std::default_delete<x666::Expression> > >&, std::unique_ptr<x666::Expression, std::default_delete<x666::Expression> >*, unsigned long)>
      }
  433e70:	90                   	nop
  433e71:	c9                   	leaveq 
  433e72:	c3                   	retq   
  433e73:	90                   	nop

0000000000433e74 <std::_Deque_base<std::unique_ptr<x666::Expression, std::default_delete<x666::Expression> >, std::allocator<std::unique_ptr<x666::Expression, std::default_delete<x666::Expression> > > >::_M_get_map_allocator() const>:
      _M_get_map_allocator() const _GLIBCXX_NOEXCEPT
  433e74:	55                   	push   %rbp
  433e75:	48 89 e5             	mov    %rsp,%rbp
  433e78:	48 83 ec 10          	sub    $0x10,%rsp
  433e7c:	48 89 7d f8          	mov    %rdi,-0x8(%rbp)
  433e80:	48 89 75 f0          	mov    %rsi,-0x10(%rbp)
      { return _Map_alloc_type(_M_get_Tp_allocator()); }
  433e84:	48 8b 45 f0          	mov    -0x10(%rbp),%rax
  433e88:	48 89 c7             	mov    %rax,%rdi
  433e8b:	e8 c2 02 00 00       	callq  434152 <std::_Deque_base<std::unique_ptr<x666::Expression, std::default_delete<x666::Expression> >, std::allocator<std::unique_ptr<x666::Expression, std::default_delete<x666::Expression> > > >::_M_get_Tp_allocator() const>
  433e90:	48 89 c2             	mov    %rax,%rdx
  433e93:	48 8b 45 f8          	mov    -0x8(%rbp),%rax
  433e97:	48 89 d6             	mov    %rdx,%rsi
  433e9a:	48 89 c7             	mov    %rax,%rdi
  433e9d:	e8 be 02 00 00       	callq  434160 <std::allocator<std::unique_ptr<x666::Expression, std::default_delete<x666::Expression> >*>::allocator<std::unique_ptr<x666::Expression, std::default_delete<x666::Expression> > >(std::allocator<std::unique_ptr<x666::Expression, std::default_delete<x666::Expression> > > const&)>
  433ea2:	48 8b 45 f8          	mov    -0x8(%rbp),%rax
  433ea6:	c9                   	leaveq 
  433ea7:	c3                   	retq   

0000000000433ea8 <std::allocator<std::unique_ptr<x666::Expression, std::default_delete<x666::Expression> >*>::~allocator()>:
  433ea8:	55                   	push   %rbp
  433ea9:	48 89 e5             	mov    %rsp,%rbp
  433eac:	48 83 ec 10          	sub    $0x10,%rsp
  433eb0:	48 89 7d f8          	mov    %rdi,-0x8(%rbp)
  433eb4:	48 8b 45 f8          	mov    -0x8(%rbp),%rax
  433eb8:	48 89 c7             	mov    %rax,%rdi
  433ebb:	e8 c0 02 00 00       	callq  434180 <__gnu_cxx::new_allocator<std::unique_ptr<x666::Expression, std::default_delete<x666::Expression> >*>::~new_allocator()>
  433ec0:	90                   	nop
  433ec1:	c9                   	leaveq 
  433ec2:	c3                   	retq   

0000000000433ec3 <std::allocator_traits<std::allocator<std::unique_ptr<x666::Expression, std::default_delete<x666::Expression> >*> >::deallocate(std::allocator<std::unique_ptr<x666::Expression, std::default_delete<x666::Expression> >*>&, std::unique_ptr<x666::Expression, std::default_delete<x666::Expression> >**, unsigned long)>:
      deallocate(allocator_type& __a, pointer __p, size_type __n)
  433ec3:	55                   	push   %rbp
  433ec4:	48 89 e5             	mov    %rsp,%rbp
  433ec7:	48 83 ec 20          	sub    $0x20,%rsp
  433ecb:	48 89 7d f8          	mov    %rdi,-0x8(%rbp)
  433ecf:	48 89 75 f0          	mov    %rsi,-0x10(%rbp)
  433ed3:	48 89 55 e8          	mov    %rdx,-0x18(%rbp)
      { __a.deallocate(__p, __n); }
  433ed7:	48 8b 55 e8          	mov    -0x18(%rbp),%rdx
  433edb:	48 8b 4d f0          	mov    -0x10(%rbp),%rcx
  433edf:	48 8b 45 f8          	mov    -0x8(%rbp),%rax
  433ee3:	48 89 ce             	mov    %rcx,%rsi
  433ee6:	48 89 c7             	mov    %rax,%rdi
  433ee9:	e8 9e 02 00 00       	callq  43418c <__gnu_cxx::new_allocator<std::unique_ptr<x666::Expression, std::default_delete<x666::Expression> >*>::deallocate(std::unique_ptr<x666::Expression, std::default_delete<x666::Expression> >**, unsigned long)>
  433eee:	90                   	nop
  433eef:	c9                   	leaveq 
  433ef0:	c3                   	retq   

0000000000433ef1 <std::deque<std::unique_ptr<x666::Expression, std::default_delete<x666::Expression> >, std::allocator<std::unique_ptr<x666::Expression, std::default_delete<x666::Expression> > > >::_S_buffer_size()>:
      static size_t _S_buffer_size() _GLIBCXX_NOEXCEPT
  433ef1:	55                   	push   %rbp
  433ef2:	48 89 e5             	mov    %rsp,%rbp
      { return __deque_buf_size(sizeof(_Tp)); }
  433ef5:	bf 08 00 00 00       	mov    $0x8,%edi
  433efa:	e8 2f ee ff ff       	callq  432d2e <std::__deque_buf_size(unsigned long)>
  433eff:	5d                   	pop    %rbp
  433f00:	c3                   	retq   
  433f01:	90                   	nop

0000000000433f02 <__gnu_cxx::new_allocator<x666::LineInfo>::~new_allocator()>:
  433f02:	55                   	push   %rbp
  433f03:	48 89 e5             	mov    %rsp,%rbp
  433f06:	48 89 7d f8          	mov    %rdi,-0x8(%rbp)
  433f0a:	90                   	nop
  433f0b:	5d                   	pop    %rbp
  433f0c:	c3                   	retq   
  433f0d:	90                   	nop

0000000000433f0e <std::_Deque_base<x666::LineInfo, std::allocator<x666::LineInfo> >::_M_deallocate_node(x666::LineInfo*)>:
      _M_deallocate_node(_Ptr __p) _GLIBCXX_NOEXCEPT
  433f0e:	55                   	push   %rbp
  433f0f:	48 89 e5             	mov    %rsp,%rbp
  433f12:	48 83 ec 10          	sub    $0x10,%rsp
  433f16:	48 89 7d f8          	mov    %rdi,-0x8(%rbp)
  433f1a:	48 89 75 f0          	mov    %rsi,-0x10(%rbp)
	_Traits::deallocate(_M_impl, __p, __deque_buf_size(sizeof(_Tp)));
  433f1e:	bf 20 00 00 00       	mov    $0x20,%edi
  433f23:	e8 06 ee ff ff       	callq  432d2e <std::__deque_buf_size(unsigned long)>
  433f28:	48 89 c2             	mov    %rax,%rdx
  433f2b:	48 8b 45 f8          	mov    -0x8(%rbp),%rax
  433f2f:	48 8b 4d f0          	mov    -0x10(%rbp),%rcx
  433f33:	48 89 ce             	mov    %rcx,%rsi
  433f36:	48 89 c7             	mov    %rax,%rdi
  433f39:	e8 70 02 00 00       	callq  4341ae <std::allocator_traits<std::allocator<x666::LineInfo> >::deallocate(std::allocator<x666::LineInfo>&, x666::LineInfo*, unsigned long)>
      }
  433f3e:	90                   	nop
  433f3f:	c9                   	leaveq 
  433f40:	c3                   	retq   
  433f41:	90                   	nop

0000000000433f42 <std::_Deque_base<x666::LineInfo, std::allocator<x666::LineInfo> >::_M_get_map_allocator() const>:
      _M_get_map_allocator() const _GLIBCXX_NOEXCEPT
  433f42:	55                   	push   %rbp
  433f43:	48 89 e5             	mov    %rsp,%rbp
  433f46:	48 83 ec 10          	sub    $0x10,%rsp
  433f4a:	48 89 7d f8          	mov    %rdi,-0x8(%rbp)
  433f4e:	48 89 75 f0          	mov    %rsi,-0x10(%rbp)
      { return _Map_alloc_type(_M_get_Tp_allocator()); }
  433f52:	48 8b 45 f0          	mov    -0x10(%rbp),%rax
  433f56:	48 89 c7             	mov    %rax,%rdi
  433f59:	e8 7e 02 00 00       	callq  4341dc <std::_Deque_base<x666::LineInfo, std::allocator<x666::LineInfo> >::_M_get_Tp_allocator() const>
  433f5e:	48 89 c2             	mov    %rax,%rdx
  433f61:	48 8b 45 f8          	mov    -0x8(%rbp),%rax
  433f65:	48 89 d6             	mov    %rdx,%rsi
  433f68:	48 89 c7             	mov    %rax,%rdi
  433f6b:	e8 7a 02 00 00       	callq  4341ea <std::allocator<x666::LineInfo*>::allocator<x666::LineInfo>(std::allocator<x666::LineInfo> const&)>
  433f70:	48 8b 45 f8          	mov    -0x8(%rbp),%rax
  433f74:	c9                   	leaveq 
  433f75:	c3                   	retq   

0000000000433f76 <std::allocator<x666::LineInfo*>::~allocator()>:
  433f76:	55                   	push   %rbp
  433f77:	48 89 e5             	mov    %rsp,%rbp
  433f7a:	48 83 ec 10          	sub    $0x10,%rsp
  433f7e:	48 89 7d f8          	mov    %rdi,-0x8(%rbp)
  433f82:	48 8b 45 f8          	mov    -0x8(%rbp),%rax
  433f86:	48 89 c7             	mov    %rax,%rdi
  433f89:	e8 7c 02 00 00       	callq  43420a <__gnu_cxx::new_allocator<x666::LineInfo*>::~new_allocator()>
  433f8e:	90                   	nop
  433f8f:	c9                   	leaveq 
  433f90:	c3                   	retq   

0000000000433f91 <std::allocator_traits<std::allocator<x666::LineInfo*> >::deallocate(std::allocator<x666::LineInfo*>&, x666::LineInfo**, unsigned long)>:
      deallocate(allocator_type& __a, pointer __p, size_type __n)
  433f91:	55                   	push   %rbp
  433f92:	48 89 e5             	mov    %rsp,%rbp
  433f95:	48 83 ec 20          	sub    $0x20,%rsp
  433f99:	48 89 7d f8          	mov    %rdi,-0x8(%rbp)
  433f9d:	48 89 75 f0          	mov    %rsi,-0x10(%rbp)
  433fa1:	48 89 55 e8          	mov    %rdx,-0x18(%rbp)
      { __a.deallocate(__p, __n); }
  433fa5:	48 8b 55 e8          	mov    -0x18(%rbp),%rdx
  433fa9:	48 8b 4d f0          	mov    -0x10(%rbp),%rcx
  433fad:	48 8b 45 f8          	mov    -0x8(%rbp),%rax
  433fb1:	48 89 ce             	mov    %rcx,%rsi
  433fb4:	48 89 c7             	mov    %rax,%rdi
  433fb7:	e8 5a 02 00 00       	callq  434216 <__gnu_cxx::new_allocator<x666::LineInfo*>::deallocate(x666::LineInfo**, unsigned long)>
  433fbc:	90                   	nop
  433fbd:	c9                   	leaveq 
  433fbe:	c3                   	retq   
  433fbf:	90                   	nop

0000000000433fc0 <__gnu_cxx::new_allocator<x666::Parser::BracketEntry>::~new_allocator()>:
  433fc0:	55                   	push   %rbp
  433fc1:	48 89 e5             	mov    %rsp,%rbp
  433fc4:	48 89 7d f8          	mov    %rdi,-0x8(%rbp)
  433fc8:	90                   	nop
  433fc9:	5d                   	pop    %rbp
  433fca:	c3                   	retq   
  433fcb:	90                   	nop

0000000000433fcc <std::_Deque_base<x666::Parser::BracketEntry, std::allocator<x666::Parser::BracketEntry> >::_M_deallocate_node(x666::Parser::BracketEntry*)>:
      _M_deallocate_node(_Ptr __p) _GLIBCXX_NOEXCEPT
  433fcc:	55                   	push   %rbp
  433fcd:	48 89 e5             	mov    %rsp,%rbp
  433fd0:	48 83 ec 10          	sub    $0x10,%rsp
  433fd4:	48 89 7d f8          	mov    %rdi,-0x8(%rbp)
  433fd8:	48 89 75 f0          	mov    %rsi,-0x10(%rbp)
	_Traits::deallocate(_M_impl, __p, __deque_buf_size(sizeof(_Tp)));
  433fdc:	bf 10 00 00 00       	mov    $0x10,%edi
  433fe1:	e8 48 ed ff ff       	callq  432d2e <std::__deque_buf_size(unsigned long)>
  433fe6:	48 89 c2             	mov    %rax,%rdx
  433fe9:	48 8b 45 f8          	mov    -0x8(%rbp),%rax
  433fed:	48 8b 4d f0          	mov    -0x10(%rbp),%rcx
  433ff1:	48 89 ce             	mov    %rcx,%rsi
  433ff4:	48 89 c7             	mov    %rax,%rdi
  433ff7:	e8 3c 02 00 00       	callq  434238 <std::allocator_traits<std::allocator<x666::Parser::BracketEntry> >::deallocate(std::allocator<x666::Parser::BracketEntry>&, x666::Parser::BracketEntry*, unsigned long)>
      }
  433ffc:	90                   	nop
  433ffd:	c9                   	leaveq 
  433ffe:	c3                   	retq   
  433fff:	90                   	nop

0000000000434000 <std::_Deque_base<x666::Parser::BracketEntry, std::allocator<x666::Parser::BracketEntry> >::_M_get_map_allocator() const>:
      _M_get_map_allocator() const _GLIBCXX_NOEXCEPT
  434000:	55                   	push   %rbp
  434001:	48 89 e5             	mov    %rsp,%rbp
  434004:	48 83 ec 10          	sub    $0x10,%rsp
  434008:	48 89 7d f8          	mov    %rdi,-0x8(%rbp)
  43400c:	48 89 75 f0          	mov    %rsi,-0x10(%rbp)
      { return _Map_alloc_type(_M_get_Tp_allocator()); }
  434010:	48 8b 45 f0          	mov    -0x10(%rbp),%rax
  434014:	48 89 c7             	mov    %rax,%rdi
  434017:	e8 4a 02 00 00       	callq  434266 <std::_Deque_base<x666::Parser::BracketEntry, std::allocator<x666::Parser::BracketEntry> >::_M_get_Tp_allocator() const>
  43401c:	48 89 c2             	mov    %rax,%rdx
  43401f:	48 8b 45 f8          	mov    -0x8(%rbp),%rax
  434023:	48 89 d6             	mov    %rdx,%rsi
  434026:	48 89 c7             	mov    %rax,%rdi
  434029:	e8 46 02 00 00       	callq  434274 <std::allocator<x666::Parser::BracketEntry*>::allocator<x666::Parser::BracketEntry>(std::allocator<x666::Parser::BracketEntry> const&)>
  43402e:	48 8b 45 f8          	mov    -0x8(%rbp),%rax
  434032:	c9                   	leaveq 
  434033:	c3                   	retq   

0000000000434034 <std::allocator<x666::Parser::BracketEntry*>::~allocator()>:
  434034:	55                   	push   %rbp
  434035:	48 89 e5             	mov    %rsp,%rbp
  434038:	48 83 ec 10          	sub    $0x10,%rsp
  43403c:	48 89 7d f8          	mov    %rdi,-0x8(%rbp)
  434040:	48 8b 45 f8          	mov    -0x8(%rbp),%rax
  434044:	48 89 c7             	mov    %rax,%rdi
  434047:	e8 48 02 00 00       	callq  434294 <__gnu_cxx::new_allocator<x666::Parser::BracketEntry*>::~new_allocator()>
  43404c:	90                   	nop
  43404d:	c9                   	leaveq 
  43404e:	c3                   	retq   

000000000043404f <std::allocator_traits<std::allocator<x666::Parser::BracketEntry*> >::deallocate(std::allocator<x666::Parser::BracketEntry*>&, x666::Parser::BracketEntry**, unsigned long)>:
      deallocate(allocator_type& __a, pointer __p, size_type __n)
  43404f:	55                   	push   %rbp
  434050:	48 89 e5             	mov    %rsp,%rbp
  434053:	48 83 ec 20          	sub    $0x20,%rsp
  434057:	48 89 7d f8          	mov    %rdi,-0x8(%rbp)
  43405b:	48 89 75 f0          	mov    %rsi,-0x10(%rbp)
  43405f:	48 89 55 e8          	mov    %rdx,-0x18(%rbp)
      { __a.deallocate(__p, __n); }
  434063:	48 8b 55 e8          	mov    -0x18(%rbp),%rdx
  434067:	48 8b 4d f0          	mov    -0x10(%rbp),%rcx
  43406b:	48 8b 45 f8          	mov    -0x8(%rbp),%rax
  43406f:	48 89 ce             	mov    %rcx,%rsi
  434072:	48 89 c7             	mov    %rax,%rdi
  434075:	e8 26 02 00 00       	callq  4342a0 <__gnu_cxx::new_allocator<x666::Parser::BracketEntry*>::deallocate(x666::Parser::BracketEntry**, unsigned long)>
  43407a:	90                   	nop
  43407b:	c9                   	leaveq 
  43407c:	c3                   	retq   
  43407d:	90                   	nop

000000000043407e <__gnu_cxx::new_allocator<x666::LexError>::~new_allocator()>:
  43407e:	55                   	push   %rbp
  43407f:	48 89 e5             	mov    %rsp,%rbp
  434082:	48 89 7d f8          	mov    %rdi,-0x8(%rbp)
  434086:	90                   	nop
  434087:	5d                   	pop    %rbp
  434088:	c3                   	retq   

0000000000434089 <std::allocator_traits<std::allocator<x666::LexError> >::deallocate(std::allocator<x666::LexError>&, x666::LexError*, unsigned long)>:
      deallocate(allocator_type& __a, pointer __p, size_type __n)
  434089:	55                   	push   %rbp
  43408a:	48 89 e5             	mov    %rsp,%rbp
  43408d:	48 83 ec 20          	sub    $0x20,%rsp
  434091:	48 89 7d f8          	mov    %rdi,-0x8(%rbp)
  434095:	48 89 75 f0          	mov    %rsi,-0x10(%rbp)
  434099:	48 89 55 e8          	mov    %rdx,-0x18(%rbp)
      { __a.deallocate(__p, __n); }
  43409d:	48 8b 55 e8          	mov    -0x18(%rbp),%rdx
  4340a1:	48 8b 4d f0          	mov    -0x10(%rbp),%rcx
  4340a5:	48 8b 45 f8          	mov    -0x8(%rbp),%rax
  4340a9:	48 89 ce             	mov    %rcx,%rsi
  4340ac:	48 89 c7             	mov    %rax,%rdi
  4340af:	e8 0e 02 00 00       	callq  4342c2 <__gnu_cxx::new_allocator<x666::LexError>::deallocate(x666::LexError*, unsigned long)>
  4340b4:	90                   	nop
  4340b5:	c9                   	leaveq 
  4340b6:	c3                   	retq   

00000000004340b7 <void std::_Destroy_aux<true>::__destroy<x666::LexError*>(x666::LexError*, x666::LexError*)>:
        __destroy(_ForwardIterator, _ForwardIterator) { }
  4340b7:	55                   	push   %rbp
  4340b8:	48 89 e5             	mov    %rsp,%rbp
  4340bb:	48 89 7d f8          	mov    %rdi,-0x8(%rbp)
  4340bf:	48 89 75 f0          	mov    %rsi,-0x10(%rbp)
  4340c3:	90                   	nop
  4340c4:	5d                   	pop    %rbp
  4340c5:	c3                   	retq   

00000000004340c6 <std::tuple_element<0ul, std::tuple<x666::Expression*, std::default_delete<x666::Expression> > >::type const& std::get<0ul, x666::Expression*, std::default_delete<x666::Expression> >(std::tuple<x666::Expression*, std::default_delete<x666::Expression> > const&)>:

  /// Return a const reference to the ith element of a const tuple.
  template<std::size_t __i, typename... _Elements>
    constexpr const __tuple_element_t<__i, tuple<_Elements...>>&
    get(const tuple<_Elements...>& __t) noexcept
  4340c6:	55                   	push   %rbp
  4340c7:	48 89 e5             	mov    %rsp,%rbp
  4340ca:	48 83 ec 10          	sub    $0x10,%rsp
  4340ce:	48 89 7d f8          	mov    %rdi,-0x8(%rbp)
    { return std::__get_helper<__i>(__t); }
  4340d2:	48 8b 45 f8          	mov    -0x8(%rbp),%rax
  4340d6:	48 89 c7             	mov    %rax,%rdi
  4340d9:	e8 06 02 00 00       	callq  4342e4 <x666::Expression* const& std::__get_helper<0ul, x666::Expression*, std::default_delete<x666::Expression> >(std::_Tuple_impl<0ul, x666::Expression*, std::default_delete<x666::Expression> > const&)>
  4340de:	c9                   	leaveq 
  4340df:	c3                   	retq   

00000000004340e0 <std::default_delete<x666::Expression>& std::__get_helper<1ul, std::default_delete<x666::Expression>>(std::_Tuple_impl<1ul, std::default_delete<x666::Expression>>&)>:
    __get_helper(_Tuple_impl<__i, _Head, _Tail...>& __t) noexcept
  4340e0:	55                   	push   %rbp
  4340e1:	48 89 e5             	mov    %rsp,%rbp
  4340e4:	48 83 ec 10          	sub    $0x10,%rsp
  4340e8:	48 89 7d f8          	mov    %rdi,-0x8(%rbp)
    { return _Tuple_impl<__i, _Head, _Tail...>::_M_head(__t); }
  4340ec:	48 8b 45 f8          	mov    -0x8(%rbp),%rax
  4340f0:	48 89 c7             	mov    %rax,%rdi
  4340f3:	e8 06 02 00 00       	callq  4342fe <std::_Tuple_impl<1ul, std::default_delete<x666::Expression> >::_M_head(std::_Tuple_impl<1ul, std::default_delete<x666::Expression> >&)>
  4340f8:	c9                   	leaveq 
  4340f9:	c3                   	retq   

00000000004340fa <std::_Tuple_impl<0ul, x666::Expression*, std::default_delete<x666::Expression> >::_M_head(std::_Tuple_impl<0ul, x666::Expression*, std::default_delete<x666::Expression> >&)>:
      _M_head(_Tuple_impl& __t) noexcept { return _Base::_M_head(__t); }
  4340fa:	55                   	push   %rbp
  4340fb:	48 89 e5             	mov    %rsp,%rbp
  4340fe:	48 83 ec 10          	sub    $0x10,%rsp
  434102:	48 89 7d f8          	mov    %rdi,-0x8(%rbp)
  434106:	48 8b 45 f8          	mov    -0x8(%rbp),%rax
  43410a:	48 89 c7             	mov    %rax,%rdi
  43410d:	e8 06 02 00 00       	callq  434318 <std::_Head_base<0ul, x666::Expression*, false>::_M_head(std::_Head_base<0ul, x666::Expression*, false>&)>
  434112:	c9                   	leaveq 
  434113:	c3                   	retq   

0000000000434114 <__gnu_cxx::new_allocator<std::unique_ptr<x666::Expression, std::default_delete<x666::Expression> > >::deallocate(std::unique_ptr<x666::Expression, std::default_delete<x666::Expression> >*, unsigned long)>:
	return static_cast<_Tp*>(::operator new(__n * sizeof(_Tp)));
      }

      // __p is not permitted to be a null pointer.
      void
      deallocate(pointer __p, size_type)
  434114:	55                   	push   %rbp
  434115:	48 89 e5             	mov    %rsp,%rbp
  434118:	48 83 ec 20          	sub    $0x20,%rsp
  43411c:	48 89 7d f8          	mov    %rdi,-0x8(%rbp)
  434120:	48 89 75 f0          	mov    %rsi,-0x10(%rbp)
  434124:	48 89 55 e8          	mov    %rdx,-0x18(%rbp)
	  {
	    ::operator delete(__p, std::align_val_t(alignof(_Tp)));
	    return;
	  }
#endif
	::operator delete(__p);
  434128:	48 8b 45 f0          	mov    -0x10(%rbp),%rax
  43412c:	48 89 c7             	mov    %rax,%rdi
  43412f:	e8 8c e6 ff ff       	callq  4327c0 <operator delete(void*)@plt>
      }
  434134:	c9                   	leaveq 
  434135:	c3                   	retq   

0000000000434136 <void std::_Destroy<std::unique_ptr<x666::Expression, std::default_delete<x666::Expression> > >(std::unique_ptr<x666::Expression, std::default_delete<x666::Expression> >*)>:
    _Destroy(_Tp* __pointer)
  434136:	55                   	push   %rbp
  434137:	48 89 e5             	mov    %rsp,%rbp
  43413a:	48 83 ec 10          	sub    $0x10,%rsp
  43413e:	48 89 7d f8          	mov    %rdi,-0x8(%rbp)
    { __pointer->~_Tp(); }
  434142:	48 8b 45 f8          	mov    -0x8(%rbp),%rax
  434146:	48 89 c7             	mov    %rax,%rdi
  434149:	e8 be ec ff ff       	callq  432e0c <std::unique_ptr<x666::Expression, std::default_delete<x666::Expression> >::~unique_ptr()>
  43414e:	90                   	nop
  43414f:	c9                   	leaveq 
  434150:	c3                   	retq   
  434151:	90                   	nop

0000000000434152 <std::_Deque_base<std::unique_ptr<x666::Expression, std::default_delete<x666::Expression> >, std::allocator<std::unique_ptr<x666::Expression, std::default_delete<x666::Expression> > > >::_M_get_Tp_allocator() const>:
      _M_get_Tp_allocator() const _GLIBCXX_NOEXCEPT
  434152:	55                   	push   %rbp
  434153:	48 89 e5             	mov    %rsp,%rbp
  434156:	48 89 7d f8          	mov    %rdi,-0x8(%rbp)
      { return *static_cast<const _Tp_alloc_type*>(&this->_M_impl); }
  43415a:	48 8b 45 f8          	mov    -0x8(%rbp),%rax
  43415e:	5d                   	pop    %rbp
  43415f:	c3                   	retq   

0000000000434160 <std::allocator<std::unique_ptr<x666::Expression, std::default_delete<x666::Expression> >*>::allocator<std::unique_ptr<x666::Expression, std::default_delete<x666::Expression> > >(std::allocator<std::unique_ptr<x666::Expression, std::default_delete<x666::Expression> > > const&)>:
	allocator(const allocator<_Tp1>&) throw() { }
  434160:	55                   	push   %rbp
  434161:	48 89 e5             	mov    %rsp,%rbp
  434164:	48 83 ec 10          	sub    $0x10,%rsp
  434168:	48 89 7d f8          	mov    %rdi,-0x8(%rbp)
  43416c:	48 89 75 f0          	mov    %rsi,-0x10(%rbp)
  434170:	48 8b 45 f8          	mov    -0x8(%rbp),%rax
  434174:	48 89 c7             	mov    %rax,%rdi
  434177:	e8 aa 01 00 00       	callq  434326 <__gnu_cxx::new_allocator<std::unique_ptr<x666::Expression, std::default_delete<x666::Expression> >*>::new_allocator()>
  43417c:	90                   	nop
  43417d:	c9                   	leaveq 
  43417e:	c3                   	retq   
  43417f:	90                   	nop

0000000000434180 <__gnu_cxx::new_allocator<std::unique_ptr<x666::Expression, std::default_delete<x666::Expression> >*>::~new_allocator()>:
      ~new_allocator() _GLIBCXX_USE_NOEXCEPT { }
  434180:	55                   	push   %rbp
  434181:	48 89 e5             	mov    %rsp,%rbp
  434184:	48 89 7d f8          	mov    %rdi,-0x8(%rbp)
  434188:	90                   	nop
  434189:	5d                   	pop    %rbp
  43418a:	c3                   	retq   
  43418b:	90                   	nop

000000000043418c <__gnu_cxx::new_allocator<std::unique_ptr<x666::Expression, std::default_delete<x666::Expression> >*>::deallocate(std::unique_ptr<x666::Expression, std::default_delete<x666::Expression> >**, unsigned long)>:
      deallocate(pointer __p, size_type)
  43418c:	55                   	push   %rbp
  43418d:	48 89 e5             	mov    %rsp,%rbp
  434190:	48 83 ec 20          	sub    $0x20,%rsp
  434194:	48 89 7d f8          	mov    %rdi,-0x8(%rbp)
  434198:	48 89 75 f0          	mov    %rsi,-0x10(%rbp)
  43419c:	48 89 55 e8          	mov    %rdx,-0x18(%rbp)
	::operator delete(__p);
  4341a0:	48 8b 45 f0          	mov    -0x10(%rbp),%rax
  4341a4:	48 89 c7             	mov    %rax,%rdi
  4341a7:	e8 14 e6 ff ff       	callq  4327c0 <operator delete(void*)@plt>
      }
  4341ac:	c9                   	leaveq 
  4341ad:	c3                   	retq   

00000000004341ae <std::allocator_traits<std::allocator<x666::LineInfo> >::deallocate(std::allocator<x666::LineInfo>&, x666::LineInfo*, unsigned long)>:
      deallocate(allocator_type& __a, pointer __p, size_type __n)
  4341ae:	55                   	push   %rbp
  4341af:	48 89 e5             	mov    %rsp,%rbp
  4341b2:	48 83 ec 20          	sub    $0x20,%rsp
  4341b6:	48 89 7d f8          	mov    %rdi,-0x8(%rbp)
  4341ba:	48 89 75 f0          	mov    %rsi,-0x10(%rbp)
  4341be:	48 89 55 e8          	mov    %rdx,-0x18(%rbp)
      { __a.deallocate(__p, __n); }
  4341c2:	48 8b 55 e8          	mov    -0x18(%rbp),%rdx
  4341c6:	48 8b 4d f0          	mov    -0x10(%rbp),%rcx
  4341ca:	48 8b 45 f8          	mov    -0x8(%rbp),%rax
  4341ce:	48 89 ce             	mov    %rcx,%rsi
  4341d1:	48 89 c7             	mov    %rax,%rdi
  4341d4:	e8 59 01 00 00       	callq  434332 <__gnu_cxx::new_allocator<x666::LineInfo>::deallocate(x666::LineInfo*, unsigned long)>
  4341d9:	90                   	nop
  4341da:	c9                   	leaveq 
  4341db:	c3                   	retq   

00000000004341dc <std::_Deque_base<x666::LineInfo, std::allocator<x666::LineInfo> >::_M_get_Tp_allocator() const>:
      _M_get_Tp_allocator() const _GLIBCXX_NOEXCEPT
  4341dc:	55                   	push   %rbp
  4341dd:	48 89 e5             	mov    %rsp,%rbp
  4341e0:	48 89 7d f8          	mov    %rdi,-0x8(%rbp)
      { return *static_cast<const _Tp_alloc_type*>(&this->_M_impl); }
  4341e4:	48 8b 45 f8          	mov    -0x8(%rbp),%rax
  4341e8:	5d                   	pop    %rbp
  4341e9:	c3                   	retq   

00000000004341ea <std::allocator<x666::LineInfo*>::allocator<x666::LineInfo>(std::allocator<x666::LineInfo> const&)>:
  4341ea:	55                   	push   %rbp
  4341eb:	48 89 e5             	mov    %rsp,%rbp
  4341ee:	48 83 ec 10          	sub    $0x10,%rsp
  4341f2:	48 89 7d f8          	mov    %rdi,-0x8(%rbp)
  4341f6:	48 89 75 f0          	mov    %rsi,-0x10(%rbp)
  4341fa:	48 8b 45 f8          	mov    -0x8(%rbp),%rax
  4341fe:	48 89 c7             	mov    %rax,%rdi
  434201:	e8 4e 01 00 00       	callq  434354 <__gnu_cxx::new_allocator<x666::LineInfo*>::new_allocator()>
  434206:	90                   	nop
  434207:	c9                   	leaveq 
  434208:	c3                   	retq   
  434209:	90                   	nop

000000000043420a <__gnu_cxx::new_allocator<x666::LineInfo*>::~new_allocator()>:
      ~new_allocator() _GLIBCXX_USE_NOEXCEPT { }
  43420a:	55                   	push   %rbp
  43420b:	48 89 e5             	mov    %rsp,%rbp
  43420e:	48 89 7d f8          	mov    %rdi,-0x8(%rbp)
  434212:	90                   	nop
  434213:	5d                   	pop    %rbp
  434214:	c3                   	retq   
  434215:	90                   	nop

0000000000434216 <__gnu_cxx::new_allocator<x666::LineInfo*>::deallocate(x666::LineInfo**, unsigned long)>:
      deallocate(pointer __p, size_type)
  434216:	55                   	push   %rbp
  434217:	48 89 e5             	mov    %rsp,%rbp
  43421a:	48 83 ec 20          	sub    $0x20,%rsp
  43421e:	48 89 7d f8          	mov    %rdi,-0x8(%rbp)
  434222:	48 89 75 f0          	mov    %rsi,-0x10(%rbp)
  434226:	48 89 55 e8          	mov    %rdx,-0x18(%rbp)
	::operator delete(__p);
  43422a:	48 8b 45 f0          	mov    -0x10(%rbp),%rax
  43422e:	48 89 c7             	mov    %rax,%rdi
  434231:	e8 8a e5 ff ff       	callq  4327c0 <operator delete(void*)@plt>
      }
  434236:	c9                   	leaveq 
  434237:	c3                   	retq   

0000000000434238 <std::allocator_traits<std::allocator<x666::Parser::BracketEntry> >::deallocate(std::allocator<x666::Parser::BracketEntry>&, x666::Parser::BracketEntry*, unsigned long)>:
      deallocate(allocator_type& __a, pointer __p, size_type __n)
  434238:	55                   	push   %rbp
  434239:	48 89 e5             	mov    %rsp,%rbp
  43423c:	48 83 ec 20          	sub    $0x20,%rsp
  434240:	48 89 7d f8          	mov    %rdi,-0x8(%rbp)
  434244:	48 89 75 f0          	mov    %rsi,-0x10(%rbp)
  434248:	48 89 55 e8          	mov    %rdx,-0x18(%rbp)
      { __a.deallocate(__p, __n); }
  43424c:	48 8b 55 e8          	mov    -0x18(%rbp),%rdx
  434250:	48 8b 4d f0          	mov    -0x10(%rbp),%rcx
  434254:	48 8b 45 f8          	mov    -0x8(%rbp),%rax
  434258:	48 89 ce             	mov    %rcx,%rsi
  43425b:	48 89 c7             	mov    %rax,%rdi
  43425e:	e8 fd 00 00 00       	callq  434360 <__gnu_cxx::new_allocator<x666::Parser::BracketEntry>::deallocate(x666::Parser::BracketEntry*, unsigned long)>
  434263:	90                   	nop
  434264:	c9                   	leaveq 
  434265:	c3                   	retq   

0000000000434266 <std::_Deque_base<x666::Parser::BracketEntry, std::allocator<x666::Parser::BracketEntry> >::_M_get_Tp_allocator() const>:
      _M_get_Tp_allocator() const _GLIBCXX_NOEXCEPT
  434266:	55                   	push   %rbp
  434267:	48 89 e5             	mov    %rsp,%rbp
  43426a:	48 89 7d f8          	mov    %rdi,-0x8(%rbp)
      { return *static_cast<const _Tp_alloc_type*>(&this->_M_impl); }
  43426e:	48 8b 45 f8          	mov    -0x8(%rbp),%rax
  434272:	5d                   	pop    %rbp
  434273:	c3                   	retq   

0000000000434274 <std::allocator<x666::Parser::BracketEntry*>::allocator<x666::Parser::BracketEntry>(std::allocator<x666::Parser::BracketEntry> const&)>:
  434274:	55                   	push   %rbp
  434275:	48 89 e5             	mov    %rsp,%rbp
  434278:	48 83 ec 10          	sub    $0x10,%rsp
  43427c:	48 89 7d f8          	mov    %rdi,-0x8(%rbp)
  434280:	48 89 75 f0          	mov    %rsi,-0x10(%rbp)
  434284:	48 8b 45 f8          	mov    -0x8(%rbp),%rax
  434288:	48 89 c7             	mov    %rax,%rdi
  43428b:	e8 f2 00 00 00       	callq  434382 <__gnu_cxx::new_allocator<x666::Parser::BracketEntry*>::new_allocator()>
  434290:	90                   	nop
  434291:	c9                   	leaveq 
  434292:	c3                   	retq   
  434293:	90                   	nop

0000000000434294 <__gnu_cxx::new_allocator<x666::Parser::BracketEntry*>::~new_allocator()>:
      ~new_allocator() _GLIBCXX_USE_NOEXCEPT { }
  434294:	55                   	push   %rbp
  434295:	48 89 e5             	mov    %rsp,%rbp
  434298:	48 89 7d f8          	mov    %rdi,-0x8(%rbp)
  43429c:	90                   	nop
  43429d:	5d                   	pop    %rbp
  43429e:	c3                   	retq   
  43429f:	90                   	nop

00000000004342a0 <__gnu_cxx::new_allocator<x666::Parser::BracketEntry*>::deallocate(x666::Parser::BracketEntry**, unsigned long)>:
      deallocate(pointer __p, size_type)
  4342a0:	55                   	push   %rbp
  4342a1:	48 89 e5             	mov    %rsp,%rbp
  4342a4:	48 83 ec 20          	sub    $0x20,%rsp
  4342a8:	48 89 7d f8          	mov    %rdi,-0x8(%rbp)
  4342ac:	48 89 75 f0          	mov    %rsi,-0x10(%rbp)
  4342b0:	48 89 55 e8          	mov    %rdx,-0x18(%rbp)
	::operator delete(__p);
  4342b4:	48 8b 45 f0          	mov    -0x10(%rbp),%rax
  4342b8:	48 89 c7             	mov    %rax,%rdi
  4342bb:	e8 00 e5 ff ff       	callq  4327c0 <operator delete(void*)@plt>
      }
  4342c0:	c9                   	leaveq 
  4342c1:	c3                   	retq   

00000000004342c2 <__gnu_cxx::new_allocator<x666::LexError>::deallocate(x666::LexError*, unsigned long)>:
      deallocate(pointer __p, size_type)
  4342c2:	55                   	push   %rbp
  4342c3:	48 89 e5             	mov    %rsp,%rbp
  4342c6:	48 83 ec 20          	sub    $0x20,%rsp
  4342ca:	48 89 7d f8          	mov    %rdi,-0x8(%rbp)
  4342ce:	48 89 75 f0          	mov    %rsi,-0x10(%rbp)
  4342d2:	48 89 55 e8          	mov    %rdx,-0x18(%rbp)
	::operator delete(__p);
  4342d6:	48 8b 45 f0          	mov    -0x10(%rbp),%rax
  4342da:	48 89 c7             	mov    %rax,%rdi
  4342dd:	e8 de e4 ff ff       	callq  4327c0 <operator delete(void*)@plt>
      }
  4342e2:	c9                   	leaveq 
  4342e3:	c3                   	retq   

00000000004342e4 <x666::Expression* const& std::__get_helper<0ul, x666::Expression*, std::default_delete<x666::Expression> >(std::_Tuple_impl<0ul, x666::Expression*, std::default_delete<x666::Expression> > const&)>:
    __get_helper(const _Tuple_impl<__i, _Head, _Tail...>& __t) noexcept
  4342e4:	55                   	push   %rbp
  4342e5:	48 89 e5             	mov    %rsp,%rbp
  4342e8:	48 83 ec 10          	sub    $0x10,%rsp
  4342ec:	48 89 7d f8          	mov    %rdi,-0x8(%rbp)
    { return _Tuple_impl<__i, _Head, _Tail...>::_M_head(__t); }
  4342f0:	48 8b 45 f8          	mov    -0x8(%rbp),%rax
  4342f4:	48 89 c7             	mov    %rax,%rdi
  4342f7:	e8 91 00 00 00       	callq  43438d <std::_Tuple_impl<0ul, x666::Expression*, std::default_delete<x666::Expression> >::_M_head(std::_Tuple_impl<0ul, x666::Expression*, std::default_delete<x666::Expression> > const&)>
  4342fc:	c9                   	leaveq 
  4342fd:	c3                   	retq   

00000000004342fe <std::_Tuple_impl<1ul, std::default_delete<x666::Expression> >::_M_head(std::_Tuple_impl<1ul, std::default_delete<x666::Expression> >&)>:
      _M_head(_Tuple_impl& __t) noexcept { return _Base::_M_head(__t); }
  4342fe:	55                   	push   %rbp
  4342ff:	48 89 e5             	mov    %rsp,%rbp
  434302:	48 83 ec 10          	sub    $0x10,%rsp
  434306:	48 89 7d f8          	mov    %rdi,-0x8(%rbp)
  43430a:	48 8b 45 f8          	mov    -0x8(%rbp),%rax
  43430e:	48 89 c7             	mov    %rax,%rdi
  434311:	e8 91 00 00 00       	callq  4343a7 <std::_Head_base<1ul, std::default_delete<x666::Expression>, true>::_M_head(std::_Head_base<1ul, std::default_delete<x666::Expression>, true>&)>
  434316:	c9                   	leaveq 
  434317:	c3                   	retq   

0000000000434318 <std::_Head_base<0ul, x666::Expression*, false>::_M_head(std::_Head_base<0ul, x666::Expression*, false>&)>:
      _M_head(_Head_base& __b) noexcept { return __b._M_head_impl; }
  434318:	55                   	push   %rbp
  434319:	48 89 e5             	mov    %rsp,%rbp
  43431c:	48 89 7d f8          	mov    %rdi,-0x8(%rbp)
  434320:	48 8b 45 f8          	mov    -0x8(%rbp),%rax
  434324:	5d                   	pop    %rbp
  434325:	c3                   	retq   

0000000000434326 <__gnu_cxx::new_allocator<std::unique_ptr<x666::Expression, std::default_delete<x666::Expression> >*>::new_allocator()>:
      new_allocator() _GLIBCXX_USE_NOEXCEPT { }
  434326:	55                   	push   %rbp
  434327:	48 89 e5             	mov    %rsp,%rbp
  43432a:	48 89 7d f8          	mov    %rdi,-0x8(%rbp)
  43432e:	90                   	nop
  43432f:	5d                   	pop    %rbp
  434330:	c3                   	retq   
  434331:	90                   	nop

0000000000434332 <__gnu_cxx::new_allocator<x666::LineInfo>::deallocate(x666::LineInfo*, unsigned long)>:
      deallocate(pointer __p, size_type)
  434332:	55                   	push   %rbp
  434333:	48 89 e5             	mov    %rsp,%rbp
  434336:	48 83 ec 20          	sub    $0x20,%rsp
  43433a:	48 89 7d f8          	mov    %rdi,-0x8(%rbp)
  43433e:	48 89 75 f0          	mov    %rsi,-0x10(%rbp)
  434342:	48 89 55 e8          	mov    %rdx,-0x18(%rbp)
	::operator delete(__p);
  434346:	48 8b 45 f0          	mov    -0x10(%rbp),%rax
  43434a:	48 89 c7             	mov    %rax,%rdi
  43434d:	e8 6e e4 ff ff       	callq  4327c0 <operator delete(void*)@plt>
      }
  434352:	c9                   	leaveq 
  434353:	c3                   	retq   

0000000000434354 <__gnu_cxx::new_allocator<x666::LineInfo*>::new_allocator()>:
      new_allocator() _GLIBCXX_USE_NOEXCEPT { }
  434354:	55                   	push   %rbp
  434355:	48 89 e5             	mov    %rsp,%rbp
  434358:	48 89 7d f8          	mov    %rdi,-0x8(%rbp)
  43435c:	90                   	nop
  43435d:	5d                   	pop    %rbp
  43435e:	c3                   	retq   
  43435f:	90                   	nop

0000000000434360 <__gnu_cxx::new_allocator<x666::Parser::BracketEntry>::deallocate(x666::Parser::BracketEntry*, unsigned long)>:
      deallocate(pointer __p, size_type)
  434360:	55                   	push   %rbp
  434361:	48 89 e5             	mov    %rsp,%rbp
  434364:	48 83 ec 20          	sub    $0x20,%rsp
  434368:	48 89 7d f8          	mov    %rdi,-0x8(%rbp)
  43436c:	48 89 75 f0          	mov    %rsi,-0x10(%rbp)
  434370:	48 89 55 e8          	mov    %rdx,-0x18(%rbp)
	::operator delete(__p);
  434374:	48 8b 45 f0          	mov    -0x10(%rbp),%rax
  434378:	48 89 c7             	mov    %rax,%rdi
  43437b:	e8 40 e4 ff ff       	callq  4327c0 <operator delete(void*)@plt>
      }
  434380:	c9                   	leaveq 
  434381:	c3                   	retq   

0000000000434382 <__gnu_cxx::new_allocator<x666::Parser::BracketEntry*>::new_allocator()>:
      new_allocator() _GLIBCXX_USE_NOEXCEPT { }
  434382:	55                   	push   %rbp
  434383:	48 89 e5             	mov    %rsp,%rbp
  434386:	48 89 7d f8          	mov    %rdi,-0x8(%rbp)
  43438a:	90                   	nop
  43438b:	5d                   	pop    %rbp
  43438c:	c3                   	retq   

000000000043438d <std::_Tuple_impl<0ul, x666::Expression*, std::default_delete<x666::Expression> >::_M_head(std::_Tuple_impl<0ul, x666::Expression*, std::default_delete<x666::Expression> > const&)>:
      _M_head(const _Tuple_impl& __t) noexcept { return _Base::_M_head(__t); }
  43438d:	55                   	push   %rbp
  43438e:	48 89 e5             	mov    %rsp,%rbp
  434391:	48 83 ec 10          	sub    $0x10,%rsp
  434395:	48 89 7d f8          	mov    %rdi,-0x8(%rbp)
  434399:	48 8b 45 f8          	mov    -0x8(%rbp),%rax
  43439d:	48 89 c7             	mov    %rax,%rdi
  4343a0:	e8 10 00 00 00       	callq  4343b5 <std::_Head_base<0ul, x666::Expression*, false>::_M_head(std::_Head_base<0ul, x666::Expression*, false> const&)>
  4343a5:	c9                   	leaveq 
  4343a6:	c3                   	retq   

00000000004343a7 <std::_Head_base<1ul, std::default_delete<x666::Expression>, true>::_M_head(std::_Head_base<1ul, std::default_delete<x666::Expression>, true>&)>:
      _M_head(_Head_base& __b) noexcept { return __b; }
  4343a7:	55                   	push   %rbp
  4343a8:	48 89 e5             	mov    %rsp,%rbp
  4343ab:	48 89 7d f8          	mov    %rdi,-0x8(%rbp)
  4343af:	48 8b 45 f8          	mov    -0x8(%rbp),%rax
  4343b3:	5d                   	pop    %rbp
  4343b4:	c3                   	retq   

00000000004343b5 <std::_Head_base<0ul, x666::Expression*, false>::_M_head(std::_Head_base<0ul, x666::Expression*, false> const&)>:
      _M_head(const _Head_base& __b) noexcept { return __b._M_head_impl; }
  4343b5:	55                   	push   %rbp
  4343b6:	48 89 e5             	mov    %rsp,%rbp
  4343b9:	48 89 7d f8          	mov    %rdi,-0x8(%rbp)
  4343bd:	48 8b 45 f8          	mov    -0x8(%rbp),%rax
  4343c1:	5d                   	pop    %rbp
  4343c2:	c3                   	retq   
  4343c3:	90                   	nop

00000000004343c4 <x666::getChar(std::istream&, x666::LineInfo&)>:
    "~", "<-", "=", "<", ">",
    "/=", "<=", ">=", "??", "?&",
    "!!", "&>", "?", ":", "@", "@@",
    "@#", "!", "&", "|", "|*", "#", ",",
  };
  static int getChar(std::istream& fh, LineInfo& li) {
  4343c4:	55                   	push   %rbp
  4343c5:	48 89 e5             	mov    %rsp,%rbp
  4343c8:	48 83 ec 20          	sub    $0x20,%rsp
  4343cc:	48 89 7d e8          	mov    %rdi,-0x18(%rbp)
  4343d0:	48 89 75 e0          	mov    %rsi,-0x20(%rbp)
    int c = fh.get();
  4343d4:	48 8b 45 e8          	mov    -0x18(%rbp),%rax
  4343d8:	48 89 c7             	mov    %rax,%rdi
  4343db:	e8 60 e4 ff ff       	callq  432840 <std::istream::get()@plt>
  4343e0:	89 45 fc             	mov    %eax,-0x4(%rbp)
    if (c == '\n') {
  4343e3:	83 7d fc 0a          	cmpl   $0xa,-0x4(%rbp)
  4343e7:	75 20                	jne    434409 <x666::getChar(std::istream&, x666::LineInfo&)+0x45>
      ++li.line;
  4343e9:	48 8b 45 e0          	mov    -0x20(%rbp),%rax
  4343ed:	48 8b 00             	mov    (%rax),%rax
  4343f0:	48 8d 50 01          	lea    0x1(%rax),%rdx
  4343f4:	48 8b 45 e0          	mov    -0x20(%rbp),%rax
  4343f8:	48 89 10             	mov    %rdx,(%rax)
      li.col = 0;
  4343fb:	48 8b 45 e0          	mov    -0x20(%rbp),%rax
  4343ff:	48 c7 40 08 00 00 00 	movq   $0x0,0x8(%rax)
  434406:	00 
  434407:	eb 14                	jmp    43441d <x666::getChar(std::istream&, x666::LineInfo&)+0x59>
    } else {
      ++li.col;
  434409:	48 8b 45 e0          	mov    -0x20(%rbp),%rax
  43440d:	48 8b 40 08          	mov    0x8(%rax),%rax
  434411:	48 8d 50 01          	lea    0x1(%rax),%rdx
  434415:	48 8b 45 e0          	mov    -0x20(%rbp),%rax
  434419:	48 89 50 08          	mov    %rdx,0x8(%rax)
    }
    ++li.byte;
  43441d:	48 8b 45 e0          	mov    -0x20(%rbp),%rax
  434421:	48 8b 40 10          	mov    0x10(%rax),%rax
  434425:	48 8d 50 01          	lea    0x1(%rax),%rdx
  434429:	48 8b 45 e0          	mov    -0x20(%rbp),%rax
  43442d:	48 89 50 10          	mov    %rdx,0x10(%rax)
    return c;
  434431:	8b 45 fc             	mov    -0x4(%rbp),%eax
  }
  434434:	c9                   	leaveq 
  434435:	c3                   	retq   

0000000000434436 <x666::getDigit(char)>:
  int getDigit(char c) {
  434436:	55                   	push   %rbp
  434437:	48 89 e5             	mov    %rsp,%rbp
  43443a:	48 83 ec 20          	sub    $0x20,%rsp
  43443e:	89 f8                	mov    %edi,%eax
  434440:	88 45 ec             	mov    %al,-0x14(%rbp)
    char cap = toupper(c);
  434443:	0f be 45 ec          	movsbl -0x14(%rbp),%eax
  434447:	89 c7                	mov    %eax,%edi
  434449:	e8 12 e5 ff ff       	callq  432960 <toupper@plt>
  43444e:	88 45 ff             	mov    %al,-0x1(%rbp)
    return isdigit(c) ? (c - '0') :
  434451:	0f be 45 ec          	movsbl -0x14(%rbp),%eax
  434455:	89 c7                	mov    %eax,%edi
  434457:	e8 54 e3 ff ff       	callq  4327b0 <isdigit@plt>
  43445c:	85 c0                	test   %eax,%eax
  43445e:	74 09                	je     434469 <x666::getDigit(char)+0x33>
  434460:	0f be 45 ec          	movsbl -0x14(%rbp),%eax
  434464:	83 e8 30             	sub    $0x30,%eax
      isupper(cap) ? (cap - 'A' + 10) : -1;
  434467:	eb 1d                	jmp    434486 <x666::getDigit(char)+0x50>
  434469:	0f be 45 ff          	movsbl -0x1(%rbp),%eax
  43446d:	89 c7                	mov    %eax,%edi
  43446f:	e8 fc e2 ff ff       	callq  432770 <isupper@plt>
  434474:	85 c0                	test   %eax,%eax
  434476:	74 09                	je     434481 <x666::getDigit(char)+0x4b>
  434478:	0f be 45 ff          	movsbl -0x1(%rbp),%eax
  43447c:	83 e8 37             	sub    $0x37,%eax
  43447f:	eb 05                	jmp    434486 <x666::getDigit(char)+0x50>
  434481:	b8 ff ff ff ff       	mov    $0xffffffff,%eax
  }
  434486:	c9                   	leaveq 
  434487:	c3                   	retq   

0000000000434488 <x666::wouldMAddOverflow(int, long, int)>:
  // Check if (a * n + b) would overflow.
  // NEEDS a != 0
  bool wouldMAddOverflow(int32_t a, int64_t n, int32_t b) {
  434488:	55                   	push   %rbp
  434489:	48 89 e5             	mov    %rsp,%rbp
  43448c:	89 7d fc             	mov    %edi,-0x4(%rbp)
  43448f:	48 89 75 f0          	mov    %rsi,-0x10(%rbp)
  434493:	89 55 f8             	mov    %edx,-0x8(%rbp)
#if defined(__GNUC__) || defined(__GNUG__)
    // Use compiler intrinsics for checks
    return
      __builtin_smull_overflow(a, n, &n) ||
  434496:	8b 45 fc             	mov    -0x4(%rbp),%eax
  434499:	48 98                	cltq   
  43449b:	48 8b 55 f0          	mov    -0x10(%rbp),%rdx
  43449f:	b9 00 00 00 00       	mov    $0x0,%ecx
  4344a4:	48 0f af c2          	imul   %rdx,%rax
  4344a8:	71 05                	jno    4344af <x666::wouldMAddOverflow(int, long, int)+0x27>
  4344aa:	b9 01 00 00 00       	mov    $0x1,%ecx
  4344af:	48 89 45 f0          	mov    %rax,-0x10(%rbp)
  4344b3:	48 89 c8             	mov    %rcx,%rax
  4344b6:	83 e0 01             	and    $0x1,%eax
  4344b9:	84 c0                	test   %al,%al
  4344bb:	75 26                	jne    4344e3 <x666::wouldMAddOverflow(int, long, int)+0x5b>
      __builtin_saddl_overflow(n, b, &n);
  4344bd:	48 8b 55 f0          	mov    -0x10(%rbp),%rdx
  4344c1:	8b 45 f8             	mov    -0x8(%rbp),%eax
  4344c4:	48 98                	cltq   
  4344c6:	b9 00 00 00 00       	mov    $0x0,%ecx
  4344cb:	48 01 d0             	add    %rdx,%rax
  4344ce:	71 05                	jno    4344d5 <x666::wouldMAddOverflow(int, long, int)+0x4d>
  4344d0:	b9 01 00 00 00       	mov    $0x1,%ecx
  4344d5:	48 89 45 f0          	mov    %rax,-0x10(%rbp)
  4344d9:	48 89 c8             	mov    %rcx,%rax
  4344dc:	83 e0 01             	and    $0x1,%eax
      __builtin_smull_overflow(a, n, &n) ||
  4344df:	84 c0                	test   %al,%al
  4344e1:	74 07                	je     4344ea <x666::wouldMAddOverflow(int, long, int)+0x62>
  4344e3:	b8 01 00 00 00       	mov    $0x1,%eax
  4344e8:	eb 05                	jmp    4344ef <x666::wouldMAddOverflow(int, long, int)+0x67>
  4344ea:	b8 00 00 00 00       	mov    $0x0,%eax
    int64_t axn = a * n;
    if (b > 0 && n > std::numeric_limits<int64_t>::max() - b) return true;
    if (b < 0 && n > std::numeric_limits<int64_t>::min() - b) return true;
    return false;
#endif
  }
  4344ef:	5d                   	pop    %rbp
  4344f0:	c3                   	retq   

00000000004344f1 <x666::parseStringLiteral[abi:cxx11](std::istream&, x666::LineInfo&)>:
  std::string parseStringLiteral(std::istream& fh, LineInfo& li) {
  4344f1:	55                   	push   %rbp
  4344f2:	48 89 e5             	mov    %rsp,%rbp
  4344f5:	53                   	push   %rbx
  4344f6:	48 83 ec 38          	sub    $0x38,%rsp
  4344fa:	48 89 7d d8          	mov    %rdi,-0x28(%rbp)
  4344fe:	48 89 75 d0          	mov    %rsi,-0x30(%rbp)
  434502:	48 89 55 c8          	mov    %rdx,-0x38(%rbp)
    std::string s;
  434506:	48 8b 45 d8          	mov    -0x28(%rbp),%rax
  43450a:	48 89 c7             	mov    %rax,%rdi
  43450d:	e8 56 1a 00 00       	callq  435f68 <std::__cxx11::basic_string<char, std::char_traits<char>, std::allocator<char> >::basic_string()>
    while (true) {
      int c = getChar(fh, li);
  434512:	48 8b 55 c8          	mov    -0x38(%rbp),%rdx
  434516:	48 8b 45 d0          	mov    -0x30(%rbp),%rax
  43451a:	48 89 d6             	mov    %rdx,%rsi
  43451d:	48 89 c7             	mov    %rax,%rdi
  434520:	e8 9f fe ff ff       	callq  4343c4 <x666::getChar(std::istream&, x666::LineInfo&)>
  434525:	89 45 ec             	mov    %eax,-0x14(%rbp)
      if (c == '\n' ||c == std::char_traits<char>::eof() || c == '\x22') {
  434528:	83 7d ec 0a          	cmpl   $0xa,-0x14(%rbp)
  43452c:	74 10                	je     43453e <x666::parseStringLiteral[abi:cxx11](std::istream&, x666::LineInfo&)+0x4d>
  43452e:	e8 53 16 00 00       	callq  435b86 <std::char_traits<char>::eof()>
  434533:	39 45 ec             	cmp    %eax,-0x14(%rbp)
  434536:	74 06                	je     43453e <x666::parseStringLiteral[abi:cxx11](std::istream&, x666::LineInfo&)+0x4d>
  434538:	83 7d ec 22          	cmpl   $0x22,-0x14(%rbp)
  43453c:	75 07                	jne    434545 <x666::parseStringLiteral[abi:cxx11](std::istream&, x666::LineInfo&)+0x54>
  43453e:	b8 01 00 00 00       	mov    $0x1,%eax
  434543:	eb 05                	jmp    43454a <x666::parseStringLiteral[abi:cxx11](std::istream&, x666::LineInfo&)+0x59>
  434545:	b8 00 00 00 00       	mov    $0x0,%eax
  43454a:	84 c0                	test   %al,%al
  43454c:	0f 85 9b 00 00 00    	jne    4345ed <x666::parseStringLiteral[abi:cxx11](std::istream&, x666::LineInfo&)+0xfc>
        break;
      } else if (c == '\\') {
  434552:	83 7d ec 5c          	cmpl   $0x5c,-0x14(%rbp)
  434556:	75 7c                	jne    4345d4 <x666::parseStringLiteral[abi:cxx11](std::istream&, x666::LineInfo&)+0xe3>
        // Escape sequence
        c = getChar(fh, li);
  434558:	48 8b 55 c8          	mov    -0x38(%rbp),%rdx
  43455c:	48 8b 45 d0          	mov    -0x30(%rbp),%rax
  434560:	48 89 d6             	mov    %rdx,%rsi
  434563:	48 89 c7             	mov    %rax,%rdi
  434566:	e8 59 fe ff ff       	callq  4343c4 <x666::getChar(std::istream&, x666::LineInfo&)>
  43456b:	89 45 ec             	mov    %eax,-0x14(%rbp)
  43456e:	83 7d ec 5c          	cmpl   $0x5c,-0x14(%rbp)
  434572:	74 21                	je     434595 <x666::parseStringLiteral[abi:cxx11](std::istream&, x666::LineInfo&)+0xa4>
  434574:	83 7d ec 6e          	cmpl   $0x6e,-0x14(%rbp)
  434578:	74 08                	je     434582 <x666::parseStringLiteral[abi:cxx11](std::istream&, x666::LineInfo&)+0x91>
  43457a:	83 7d ec 22          	cmpl   $0x22,-0x14(%rbp)
  43457e:	74 28                	je     4345a8 <x666::parseStringLiteral[abi:cxx11](std::istream&, x666::LineInfo&)+0xb7>
  434580:	eb 39                	jmp    4345bb <x666::parseStringLiteral[abi:cxx11](std::istream&, x666::LineInfo&)+0xca>
        switch (c) {
          case 'n': s += '\n'; break;
  434582:	48 8b 45 d8          	mov    -0x28(%rbp),%rax
  434586:	be 0a 00 00 00       	mov    $0xa,%esi
  43458b:	48 89 c7             	mov    %rax,%rdi
  43458e:	e8 39 1a 00 00       	callq  435fcc <std::__cxx11::basic_string<char, std::char_traits<char>, std::allocator<char> >::operator+=(char)>
  434593:	eb 53                	jmp    4345e8 <x666::parseStringLiteral[abi:cxx11](std::istream&, x666::LineInfo&)+0xf7>
          case '\\': s += '\\'; break;
  434595:	48 8b 45 d8          	mov    -0x28(%rbp),%rax
  434599:	be 5c 00 00 00       	mov    $0x5c,%esi
  43459e:	48 89 c7             	mov    %rax,%rdi
  4345a1:	e8 26 1a 00 00       	callq  435fcc <std::__cxx11::basic_string<char, std::char_traits<char>, std::allocator<char> >::operator+=(char)>
  4345a6:	eb 40                	jmp    4345e8 <x666::parseStringLiteral[abi:cxx11](std::istream&, x666::LineInfo&)+0xf7>
          case '\x22': s += '\x22'; break;
  4345a8:	48 8b 45 d8          	mov    -0x28(%rbp),%rax
  4345ac:	be 22 00 00 00       	mov    $0x22,%esi
  4345b1:	48 89 c7             	mov    %rax,%rdi
  4345b4:	e8 13 1a 00 00       	callq  435fcc <std::__cxx11::basic_string<char, std::char_traits<char>, std::allocator<char> >::operator+=(char)>
  4345b9:	eb 2d                	jmp    4345e8 <x666::parseStringLiteral[abi:cxx11](std::istream&, x666::LineInfo&)+0xf7>
          default: s += c;
  4345bb:	8b 45 ec             	mov    -0x14(%rbp),%eax
  4345be:	0f be c0             	movsbl %al,%eax
  4345c1:	48 8b 55 d8          	mov    -0x28(%rbp),%rdx
  4345c5:	89 c6                	mov    %eax,%esi
  4345c7:	48 89 d7             	mov    %rdx,%rdi
  4345ca:	e8 fd 19 00 00       	callq  435fcc <std::__cxx11::basic_string<char, std::char_traits<char>, std::allocator<char> >::operator+=(char)>
  4345cf:	e9 3e ff ff ff       	jmpq   434512 <x666::parseStringLiteral[abi:cxx11](std::istream&, x666::LineInfo&)+0x21>
        }
      } else {
        s += (char) c;
  4345d4:	8b 45 ec             	mov    -0x14(%rbp),%eax
  4345d7:	0f be c0             	movsbl %al,%eax
  4345da:	48 8b 55 d8          	mov    -0x28(%rbp),%rdx
  4345de:	89 c6                	mov    %eax,%esi
  4345e0:	48 89 d7             	mov    %rdx,%rdi
  4345e3:	e8 e4 19 00 00       	callq  435fcc <std::__cxx11::basic_string<char, std::char_traits<char>, std::allocator<char> >::operator+=(char)>
      }
    }
  4345e8:	e9 25 ff ff ff       	jmpq   434512 <x666::parseStringLiteral[abi:cxx11](std::istream&, x666::LineInfo&)+0x21>
        break;
  4345ed:	90                   	nop
    return s;
  4345ee:	eb 1a                	jmp    43460a <x666::parseStringLiteral[abi:cxx11](std::istream&, x666::LineInfo&)+0x119>
  4345f0:	48 89 c3             	mov    %rax,%rbx
  4345f3:	48 8b 45 d8          	mov    -0x28(%rbp),%rax
  4345f7:	48 89 c7             	mov    %rax,%rdi
  4345fa:	e8 75 17 00 00       	callq  435d74 <std::__cxx11::basic_string<char, std::char_traits<char>, std::allocator<char> >::~basic_string()>
  4345ff:	48 89 d8             	mov    %rbx,%rax
  434602:	48 89 c7             	mov    %rax,%rdi
  434605:	e8 06 e3 ff ff       	callq  432910 <_Unwind_Resume@plt>
  }
  43460a:	48 8b 45 d8          	mov    -0x28(%rbp),%rax
  43460e:	48 83 c4 38          	add    $0x38,%rsp
  434612:	5b                   	pop    %rbx
  434613:	5d                   	pop    %rbp
  434614:	c3                   	retq   

0000000000434615 <x666::unescape(std::__cxx11::basic_string<char, std::char_traits<char>, std::allocator<char> > const&)>:
  std::string unescape(const std::string& s) {
  434615:	55                   	push   %rbp
  434616:	48 89 e5             	mov    %rsp,%rbp
  434619:	53                   	push   %rbx
  43461a:	48 83 ec 38          	sub    $0x38,%rsp
  43461e:	48 89 7d c8          	mov    %rdi,-0x38(%rbp)
  434622:	48 89 75 c0          	mov    %rsi,-0x40(%rbp)
    std::string res;
  434626:	48 8b 45 c8          	mov    -0x38(%rbp),%rax
  43462a:	48 89 c7             	mov    %rax,%rdi
  43462d:	e8 36 19 00 00       	callq  435f68 <std::__cxx11::basic_string<char, std::char_traits<char>, std::allocator<char> >::basic_string()>
    for (char c : s) {
  434632:	48 8b 45 c0          	mov    -0x40(%rbp),%rax
  434636:	48 89 45 e8          	mov    %rax,-0x18(%rbp)
  43463a:	48 8b 45 e8          	mov    -0x18(%rbp),%rax
  43463e:	48 89 c7             	mov    %rax,%rdi
  434641:	e8 b6 1a 00 00       	callq  4360fc <std::__cxx11::basic_string<char, std::char_traits<char>, std::allocator<char> >::begin() const>
  434646:	48 89 45 d8          	mov    %rax,-0x28(%rbp)
  43464a:	48 8b 45 e8          	mov    -0x18(%rbp),%rax
  43464e:	48 89 c7             	mov    %rax,%rdi
  434651:	e8 dc 1a 00 00       	callq  436132 <std::__cxx11::basic_string<char, std::char_traits<char>, std::allocator<char> >::end() const>
  434656:	48 89 45 d0          	mov    %rax,-0x30(%rbp)
  43465a:	48 8d 55 d0          	lea    -0x30(%rbp),%rdx
  43465e:	48 8d 45 d8          	lea    -0x28(%rbp),%rax
  434662:	48 89 d6             	mov    %rdx,%rsi
  434665:	48 89 c7             	mov    %rax,%rdi
  434668:	e8 12 1b 00 00       	callq  43617f <bool __gnu_cxx::operator!=<char const*, std::__cxx11::basic_string<char, std::char_traits<char>, std::allocator<char> > >(__gnu_cxx::__normal_iterator<char const*, std::__cxx11::basic_string<char, std::char_traits<char>, std::allocator<char> > > const&, __gnu_cxx::__normal_iterator<char const*, std::__cxx11::basic_string<char, std::char_traits<char>, std::allocator<char> > > const&)>
  43466d:	84 c0                	test   %al,%al
  43466f:	0f 84 9a 00 00 00    	je     43470f <x666::unescape(std::__cxx11::basic_string<char, std::char_traits<char>, std::allocator<char> > const&)+0xfa>
  434675:	48 8d 45 d8          	lea    -0x28(%rbp),%rax
  434679:	48 89 c7             	mov    %rax,%rdi
  43467c:	e8 5b 1b 00 00       	callq  4361dc <__gnu_cxx::__normal_iterator<char const*, std::__cxx11::basic_string<char, std::char_traits<char>, std::allocator<char> > >::operator*() const>
  434681:	0f b6 00             	movzbl (%rax),%eax
  434684:	88 45 e7             	mov    %al,-0x19(%rbp)
      if (c == '\n') res += "\\n";
  434687:	80 7d e7 0a          	cmpb   $0xa,-0x19(%rbp)
  43468b:	75 13                	jne    4346a0 <x666::unescape(std::__cxx11::basic_string<char, std::char_traits<char>, std::allocator<char> > const&)+0x8b>
  43468d:	48 8b 45 c8          	mov    -0x38(%rbp),%rax
  434691:	be 59 43 44 00       	mov    $0x444359,%esi
  434696:	48 89 c7             	mov    %rax,%rdi
  434699:	e8 50 1b 00 00       	callq  4361ee <std::__cxx11::basic_string<char, std::char_traits<char>, std::allocator<char> >::operator+=(char const*)>
  43469e:	eb 44                	jmp    4346e4 <x666::unescape(std::__cxx11::basic_string<char, std::char_traits<char>, std::allocator<char> > const&)+0xcf>
      else if (c == '\\') res += "\\\\";
  4346a0:	80 7d e7 5c          	cmpb   $0x5c,-0x19(%rbp)
  4346a4:	75 13                	jne    4346b9 <x666::unescape(std::__cxx11::basic_string<char, std::char_traits<char>, std::allocator<char> > const&)+0xa4>
  4346a6:	48 8b 45 c8          	mov    -0x38(%rbp),%rax
  4346aa:	be 5c 43 44 00       	mov    $0x44435c,%esi
  4346af:	48 89 c7             	mov    %rax,%rdi
  4346b2:	e8 37 1b 00 00       	callq  4361ee <std::__cxx11::basic_string<char, std::char_traits<char>, std::allocator<char> >::operator+=(char const*)>
  4346b7:	eb 2b                	jmp    4346e4 <x666::unescape(std::__cxx11::basic_string<char, std::char_traits<char>, std::allocator<char> > const&)+0xcf>
      else if (c == '\x22') res += "\\\"";
  4346b9:	80 7d e7 22          	cmpb   $0x22,-0x19(%rbp)
  4346bd:	75 13                	jne    4346d2 <x666::unescape(std::__cxx11::basic_string<char, std::char_traits<char>, std::allocator<char> > const&)+0xbd>
  4346bf:	48 8b 45 c8          	mov    -0x38(%rbp),%rax
  4346c3:	be 5f 43 44 00       	mov    $0x44435f,%esi
  4346c8:	48 89 c7             	mov    %rax,%rdi
  4346cb:	e8 1e 1b 00 00       	callq  4361ee <std::__cxx11::basic_string<char, std::char_traits<char>, std::allocator<char> >::operator+=(char const*)>
  4346d0:	eb 12                	jmp    4346e4 <x666::unescape(std::__cxx11::basic_string<char, std::char_traits<char>, std::allocator<char> > const&)+0xcf>
      else res += c;
  4346d2:	0f be 45 e7          	movsbl -0x19(%rbp),%eax
  4346d6:	48 8b 55 c8          	mov    -0x38(%rbp),%rdx
  4346da:	89 c6                	mov    %eax,%esi
  4346dc:	48 89 d7             	mov    %rdx,%rdi
  4346df:	e8 e8 18 00 00       	callq  435fcc <std::__cxx11::basic_string<char, std::char_traits<char>, std::allocator<char> >::operator+=(char)>
    for (char c : s) {
  4346e4:	48 8d 45 d8          	lea    -0x28(%rbp),%rax
  4346e8:	48 89 c7             	mov    %rax,%rdi
  4346eb:	e8 cc 1a 00 00       	callq  4361bc <__gnu_cxx::__normal_iterator<char const*, std::__cxx11::basic_string<char, std::char_traits<char>, std::allocator<char> > >::operator++()>
  4346f0:	e9 65 ff ff ff       	jmpq   43465a <x666::unescape(std::__cxx11::basic_string<char, std::char_traits<char>, std::allocator<char> > const&)+0x45>
  4346f5:	48 89 c3             	mov    %rax,%rbx
  4346f8:	48 8b 45 c8          	mov    -0x38(%rbp),%rax
  4346fc:	48 89 c7             	mov    %rax,%rdi
  4346ff:	e8 70 16 00 00       	callq  435d74 <std::__cxx11::basic_string<char, std::char_traits<char>, std::allocator<char> >::~basic_string()>
  434704:	48 89 d8             	mov    %rbx,%rax
  434707:	48 89 c7             	mov    %rax,%rdi
  43470a:	e8 01 e2 ff ff       	callq  432910 <_Unwind_Resume@plt>
    }
    return res;
  43470f:	90                   	nop
  }
  434710:	48 8b 45 c8          	mov    -0x38(%rbp),%rax
  434714:	48 83 c4 38          	add    $0x38,%rsp
  434718:	5b                   	pop    %rbx
  434719:	5d                   	pop    %rbp
  43471a:	c3                   	retq   

000000000043471b <x666::getNextToken(std::istream&, x666::LineInfo&)>:
  Token getNextToken(std::istream& fh, LineInfo& li) {
  43471b:	55                   	push   %rbp
  43471c:	48 89 e5             	mov    %rsp,%rbp
  43471f:	53                   	push   %rbx
  434720:	48 81 ec d8 01 00 00 	sub    $0x1d8,%rsp
  434727:	48 89 bd 38 fe ff ff 	mov    %rdi,-0x1c8(%rbp)
  43472e:	48 89 b5 30 fe ff ff 	mov    %rsi,-0x1d0(%rbp)
  434735:	48 89 95 28 fe ff ff 	mov    %rdx,-0x1d8(%rbp)
    int c;
    do {
      c = getChar(fh, li);
  43473c:	48 8b 95 28 fe ff ff 	mov    -0x1d8(%rbp),%rdx
  434743:	48 8b 85 30 fe ff ff 	mov    -0x1d0(%rbp),%rax
  43474a:	48 89 d6             	mov    %rdx,%rsi
  43474d:	48 89 c7             	mov    %rax,%rdi
  434750:	e8 6f fc ff ff       	callq  4343c4 <x666::getChar(std::istream&, x666::LineInfo&)>
  434755:	89 45 ec             	mov    %eax,-0x14(%rbp)
      if (c == '\n' || c == ';') return Newline();
  434758:	83 7d ec 0a          	cmpl   $0xa,-0x14(%rbp)
  43475c:	74 06                	je     434764 <x666::getNextToken(std::istream&, x666::LineInfo&)+0x49>
  43475e:	83 7d ec 3b          	cmpl   $0x3b,-0x14(%rbp)
  434762:	75 1e                	jne    434782 <x666::getNextToken(std::istream&, x666::LineInfo&)+0x67>
  434764:	48 8d 85 6f fe ff ff 	lea    -0x191(%rbp),%rax
  43476b:	48 8b 95 38 fe ff ff 	mov    -0x1c8(%rbp),%rdx
  434772:	48 89 c6             	mov    %rax,%rsi
  434775:	48 89 d7             	mov    %rdx,%rdi
  434778:	e8 01 1b 00 00       	callq  43627e <std::variant<x666::Identifier, x666::StringLiteral, x666::IntLiteral, x666::Operator, x666::Newline, x666::EndOfFile, x666::LexError>::variant<x666::Newline, void, void, void>(x666::Newline&&)>
  43477d:	e9 11 0c 00 00       	jmpq   435393 <x666::getNextToken(std::istream&, x666::LineInfo&)+0xc78>
      if (c == '#') {
  434782:	83 7d ec 23          	cmpl   $0x23,-0x14(%rbp)
  434786:	0f 85 d1 00 00 00    	jne    43485d <x666::getNextToken(std::istream&, x666::LineInfo&)+0x142>
        if (fh.peek() == '#') {
  43478c:	48 8b 85 30 fe ff ff 	mov    -0x1d0(%rbp),%rax
  434793:	48 89 c7             	mov    %rax,%rdi
  434796:	e8 35 df ff ff       	callq  4326d0 <std::istream::peek()@plt>
  43479b:	83 f8 23             	cmp    $0x23,%eax
  43479e:	0f 94 c0             	sete   %al
  4347a1:	84 c0                	test   %al,%al
  4347a3:	0f 84 b4 00 00 00    	je     43485d <x666::getNextToken(std::istream&, x666::LineInfo&)+0x142>
          // Comment syntax (tentative)
          fh.ignore(std::numeric_limits<std::streamsize>::max(), '\n');
  4347a9:	e8 f0 13 00 00       	callq  435b9e <std::numeric_limits<long>::max()>
  4347ae:	48 89 c1             	mov    %rax,%rcx
  4347b1:	48 8b 85 30 fe ff ff 	mov    -0x1d0(%rbp),%rax
  4347b8:	ba 0a 00 00 00       	mov    $0xa,%edx
  4347bd:	48 89 ce             	mov    %rcx,%rsi
  4347c0:	48 89 c7             	mov    %rax,%rdi
  4347c3:	e8 78 df ff ff       	callq  432740 <std::istream::ignore(long, int)@plt>
          li.col = 0;
  4347c8:	48 8b 85 28 fe ff ff 	mov    -0x1d8(%rbp),%rax
  4347cf:	48 c7 40 08 00 00 00 	movq   $0x0,0x8(%rax)
  4347d6:	00 
          ++li.line;
  4347d7:	48 8b 85 28 fe ff ff 	mov    -0x1d8(%rbp),%rax
  4347de:	48 8b 00             	mov    (%rax),%rax
  4347e1:	48 8d 50 01          	lea    0x1(%rax),%rdx
  4347e5:	48 8b 85 28 fe ff ff 	mov    -0x1d8(%rbp),%rax
  4347ec:	48 89 10             	mov    %rdx,(%rax)
          li.byte = fh.tellg();
  4347ef:	48 8b 85 30 fe ff ff 	mov    -0x1d0(%rbp),%rax
  4347f6:	48 89 c7             	mov    %rax,%rdi
  4347f9:	e8 02 e1 ff ff       	callq  432900 <std::istream::tellg()@plt>
  4347fe:	48 89 85 70 fe ff ff 	mov    %rax,-0x190(%rbp)
  434805:	48 89 95 78 fe ff ff 	mov    %rdx,-0x188(%rbp)
  43480c:	48 8d 85 70 fe ff ff 	lea    -0x190(%rbp),%rax
  434813:	48 89 c7             	mov    %rax,%rdi
  434816:	e8 a3 1a 00 00       	callq  4362be <std::fpos<__mbstate_t>::operator long() const>
  43481b:	48 89 c2             	mov    %rax,%rdx
  43481e:	48 8b 85 28 fe ff ff 	mov    -0x1d8(%rbp),%rax
  434825:	48 89 50 10          	mov    %rdx,0x10(%rax)
          li.sot = li.byte;
  434829:	48 8b 85 28 fe ff ff 	mov    -0x1d8(%rbp),%rax
  434830:	48 8b 50 10          	mov    0x10(%rax),%rdx
  434834:	48 8b 85 28 fe ff ff 	mov    -0x1d8(%rbp),%rax
  43483b:	48 89 50 18          	mov    %rdx,0x18(%rax)
          return Newline();
  43483f:	48 8d 85 8a fe ff ff 	lea    -0x176(%rbp),%rax
  434846:	48 8b 95 38 fe ff ff 	mov    -0x1c8(%rbp),%rdx
  43484d:	48 89 c6             	mov    %rax,%rsi
  434850:	48 89 d7             	mov    %rdx,%rdi
  434853:	e8 26 1a 00 00       	callq  43627e <std::variant<x666::Identifier, x666::StringLiteral, x666::IntLiteral, x666::Operator, x666::Newline, x666::EndOfFile, x666::LexError>::variant<x666::Newline, void, void, void>(x666::Newline&&)>
  434858:	e9 36 0b 00 00       	jmpq   435393 <x666::getNextToken(std::istream&, x666::LineInfo&)+0xc78>
        }
      }
    } while (iswspace(c));
  43485d:	8b 45 ec             	mov    -0x14(%rbp),%eax
  434860:	89 c7                	mov    %eax,%edi
  434862:	e8 19 df ff ff       	callq  432780 <iswspace@plt>
  434867:	85 c0                	test   %eax,%eax
  434869:	0f 95 c0             	setne  %al
  43486c:	84 c0                	test   %al,%al
  43486e:	74 05                	je     434875 <x666::getNextToken(std::istream&, x666::LineInfo&)+0x15a>
    do {
  434870:	e9 c7 fe ff ff       	jmpq   43473c <x666::getNextToken(std::istream&, x666::LineInfo&)+0x21>
    if (fh.fail()) return EndOfFile();
  434875:	48 8b 85 30 fe ff ff 	mov    -0x1d0(%rbp),%rax
  43487c:	48 8b 00             	mov    (%rax),%rax
  43487f:	48 83 e8 18          	sub    $0x18,%rax
  434883:	48 8b 00             	mov    (%rax),%rax
  434886:	48 89 c2             	mov    %rax,%rdx
  434889:	48 8b 85 30 fe ff ff 	mov    -0x1d0(%rbp),%rax
  434890:	48 01 d0             	add    %rdx,%rax
  434893:	48 89 c7             	mov    %rax,%rdi
  434896:	e8 e5 dd ff ff       	callq  432680 <std::basic_ios<char, std::char_traits<char> >::fail() const@plt>
  43489b:	84 c0                	test   %al,%al
  43489d:	74 1e                	je     4348bd <x666::getNextToken(std::istream&, x666::LineInfo&)+0x1a2>
  43489f:	48 8d 85 8b fe ff ff 	lea    -0x175(%rbp),%rax
  4348a6:	48 8b 95 38 fe ff ff 	mov    -0x1c8(%rbp),%rdx
  4348ad:	48 89 c6             	mov    %rax,%rsi
  4348b0:	48 89 d7             	mov    %rdx,%rdi
  4348b3:	e8 82 1a 00 00       	callq  43633a <std::variant<x666::Identifier, x666::StringLiteral, x666::IntLiteral, x666::Operator, x666::Newline, x666::EndOfFile, x666::LexError>::variant<x666::EndOfFile, void, void, void>(x666::EndOfFile&&)>
  4348b8:	e9 d6 0a 00 00       	jmpq   435393 <x666::getNextToken(std::istream&, x666::LineInfo&)+0xc78>
    li.sot = li.byte - 1;
  4348bd:	48 8b 85 28 fe ff ff 	mov    -0x1d8(%rbp),%rax
  4348c4:	48 8b 40 10          	mov    0x10(%rax),%rax
  4348c8:	48 8d 50 ff          	lea    -0x1(%rax),%rdx
  4348cc:	48 8b 85 28 fe ff ff 	mov    -0x1d8(%rbp),%rax
  4348d3:	48 89 50 18          	mov    %rdx,0x18(%rax)
    bool negative = false;
  4348d7:	c6 45 eb 00          	movb   $0x0,-0x15(%rbp)
    if (c == '-') { // Negative integers are handled specially
  4348db:	83 7d ec 2d          	cmpl   $0x2d,-0x14(%rbp)
  4348df:	75 6c                	jne    43494d <x666::getNextToken(std::istream&, x666::LineInfo&)+0x232>
      c = fh.peek();
  4348e1:	48 8b 85 30 fe ff ff 	mov    -0x1d0(%rbp),%rax
  4348e8:	48 89 c7             	mov    %rax,%rdi
  4348eb:	e8 e0 dd ff ff       	callq  4326d0 <std::istream::peek()@plt>
  4348f0:	89 45 ec             	mov    %eax,-0x14(%rbp)
      if (isdigit(c)) {
  4348f3:	8b 45 ec             	mov    -0x14(%rbp),%eax
  4348f6:	89 c7                	mov    %eax,%edi
  4348f8:	e8 b3 de ff ff       	callq  4327b0 <isdigit@plt>
  4348fd:	85 c0                	test   %eax,%eax
  4348ff:	0f 95 c0             	setne  %al
  434902:	84 c0                	test   %al,%al
  434904:	74 1f                	je     434925 <x666::getNextToken(std::istream&, x666::LineInfo&)+0x20a>
        getChar(fh, li);
  434906:	48 8b 95 28 fe ff ff 	mov    -0x1d8(%rbp),%rdx
  43490d:	48 8b 85 30 fe ff ff 	mov    -0x1d0(%rbp),%rax
  434914:	48 89 d6             	mov    %rdx,%rsi
  434917:	48 89 c7             	mov    %rax,%rdi
  43491a:	e8 a5 fa ff ff       	callq  4343c4 <x666::getChar(std::istream&, x666::LineInfo&)>
        negative = true;
  43491f:	c6 45 eb 01          	movb   $0x1,-0x15(%rbp)
  434923:	eb 28                	jmp    43494d <x666::getNextToken(std::istream&, x666::LineInfo&)+0x232>
      } else {
        return Operator::minus;
  434925:	c7 85 8c fe ff ff 05 	movl   $0x5,-0x174(%rbp)
  43492c:	00 00 00 
  43492f:	48 8d 85 8c fe ff ff 	lea    -0x174(%rbp),%rax
  434936:	48 8b 95 38 fe ff ff 	mov    -0x1c8(%rbp),%rdx
  43493d:	48 89 c6             	mov    %rax,%rsi
  434940:	48 89 d7             	mov    %rdx,%rdi
  434943:	e8 9c 1a 00 00       	callq  4363e4 <std::variant<x666::Identifier, x666::StringLiteral, x666::IntLiteral, x666::Operator, x666::Newline, x666::EndOfFile, x666::LexError>::variant<x666::Operator, void, void, void>(x666::Operator&&)>
  434948:	e9 46 0a 00 00       	jmpq   435393 <x666::getNextToken(std::istream&, x666::LineInfo&)+0xc78>
      }
    }
    if (isdigit(c)) {
  43494d:	8b 45 ec             	mov    -0x14(%rbp),%eax
  434950:	89 c7                	mov    %eax,%edi
  434952:	e8 59 de ff ff       	callq  4327b0 <isdigit@plt>
  434957:	85 c0                	test   %eax,%eax
  434959:	0f 95 c0             	setne  %al
  43495c:	84 c0                	test   %al,%al
  43495e:	0f 84 b5 01 00 00    	je     434b19 <x666::getNextToken(std::istream&, x666::LineInfo&)+0x3fe>
      // This starts a numeric literal.
      int64_t n = (c - '0');
  434964:	8b 45 ec             	mov    -0x14(%rbp),%eax
  434967:	83 e8 30             	sub    $0x30,%eax
  43496a:	48 98                	cltq   
  43496c:	48 89 45 e0          	mov    %rax,-0x20(%rbp)
      size_t m = (n == 0) ? 0 : 1;
  434970:	48 83 7d e0 00       	cmpq   $0x0,-0x20(%rbp)
  434975:	0f 95 c0             	setne  %al
  434978:	0f b6 c0             	movzbl %al,%eax
  43497b:	48 89 45 d8          	mov    %rax,-0x28(%rbp)
      if (negative) n = -n;
  43497f:	80 7d eb 00          	cmpb   $0x0,-0x15(%rbp)
  434983:	74 04                	je     434989 <x666::getNextToken(std::istream&, x666::LineInfo&)+0x26e>
  434985:	48 f7 5d e0          	negq   -0x20(%rbp)
      size_t base = 10;
  434989:	48 c7 45 d0 0a 00 00 	movq   $0xa,-0x30(%rbp)
  434990:	00 
      while (true) {
        c = fh.peek();
  434991:	48 8b 85 30 fe ff ff 	mov    -0x1d0(%rbp),%rax
  434998:	48 89 c7             	mov    %rax,%rdi
  43499b:	e8 30 dd ff ff       	callq  4326d0 <std::istream::peek()@plt>
  4349a0:	89 45 ec             	mov    %eax,-0x14(%rbp)
        if (c == std::char_traits<char>::eof()) break;
  4349a3:	e8 de 11 00 00       	callq  435b86 <std::char_traits<char>::eof()>
  4349a8:	39 45 ec             	cmp    %eax,-0x14(%rbp)
  4349ab:	0f 94 c0             	sete   %al
  4349ae:	84 c0                	test   %al,%al
  4349b0:	0f 85 2e 01 00 00    	jne    434ae4 <x666::getNextToken(std::istream&, x666::LineInfo&)+0x3c9>
        // Treat 0(h|d|o|b) specially
        // (We check for m instead of using n directly)
        // because we don't want "00h", for instance, matching...
        if (m == 0) {
  4349b6:	48 83 7d d8 00       	cmpq   $0x0,-0x28(%rbp)
  4349bb:	75 6b                	jne    434a28 <x666::getNextToken(std::istream&, x666::LineInfo&)+0x30d>
          if (c == 'h') base = 16;
  4349bd:	83 7d ec 68          	cmpl   $0x68,-0x14(%rbp)
  4349c1:	75 0a                	jne    4349cd <x666::getNextToken(std::istream&, x666::LineInfo&)+0x2b2>
  4349c3:	48 c7 45 d0 10 00 00 	movq   $0x10,-0x30(%rbp)
  4349ca:	00 
  4349cb:	eb 2e                	jmp    4349fb <x666::getNextToken(std::istream&, x666::LineInfo&)+0x2e0>
          else if (c == 'd') base = 12;
  4349cd:	83 7d ec 64          	cmpl   $0x64,-0x14(%rbp)
  4349d1:	75 0a                	jne    4349dd <x666::getNextToken(std::istream&, x666::LineInfo&)+0x2c2>
  4349d3:	48 c7 45 d0 0c 00 00 	movq   $0xc,-0x30(%rbp)
  4349da:	00 
  4349db:	eb 1e                	jmp    4349fb <x666::getNextToken(std::istream&, x666::LineInfo&)+0x2e0>
          else if (c == 'o') base = 8;
  4349dd:	83 7d ec 6f          	cmpl   $0x6f,-0x14(%rbp)
  4349e1:	75 0a                	jne    4349ed <x666::getNextToken(std::istream&, x666::LineInfo&)+0x2d2>
  4349e3:	48 c7 45 d0 08 00 00 	movq   $0x8,-0x30(%rbp)
  4349ea:	00 
  4349eb:	eb 0e                	jmp    4349fb <x666::getNextToken(std::istream&, x666::LineInfo&)+0x2e0>
          else if (c == 'b') base = 2;
  4349ed:	83 7d ec 62          	cmpl   $0x62,-0x14(%rbp)
  4349f1:	75 08                	jne    4349fb <x666::getNextToken(std::istream&, x666::LineInfo&)+0x2e0>
  4349f3:	48 c7 45 d0 02 00 00 	movq   $0x2,-0x30(%rbp)
  4349fa:	00 
          m = 1;
  4349fb:	48 c7 45 d8 01 00 00 	movq   $0x1,-0x28(%rbp)
  434a02:	00 
          if (base != 10) {
  434a03:	48 83 7d d0 0a       	cmpq   $0xa,-0x30(%rbp)
  434a08:	74 1e                	je     434a28 <x666::getNextToken(std::istream&, x666::LineInfo&)+0x30d>
            getChar(fh, li);
  434a0a:	48 8b 95 28 fe ff ff 	mov    -0x1d8(%rbp),%rdx
  434a11:	48 8b 85 30 fe ff ff 	mov    -0x1d0(%rbp),%rax
  434a18:	48 89 d6             	mov    %rdx,%rsi
  434a1b:	48 89 c7             	mov    %rax,%rdi
  434a1e:	e8 a1 f9 ff ff       	callq  4343c4 <x666::getChar(std::istream&, x666::LineInfo&)>
            continue;
  434a23:	e9 b7 00 00 00       	jmpq   434adf <x666::getNextToken(std::istream&, x666::LineInfo&)+0x3c4>
          }
        }
        // If not a decimal digit or a letter within base bounds,
        // stop scanning
        int digit = getDigit(c);
  434a28:	8b 45 ec             	mov    -0x14(%rbp),%eax
  434a2b:	0f be c0             	movsbl %al,%eax
  434a2e:	89 c7                	mov    %eax,%edi
  434a30:	e8 01 fa ff ff       	callq  434436 <x666::getDigit(char)>
  434a35:	89 45 cc             	mov    %eax,-0x34(%rbp)
        if (digit < 0 || (size_t) digit >= base) {
  434a38:	83 7d cc 00          	cmpl   $0x0,-0x34(%rbp)
  434a3c:	0f 88 a3 00 00 00    	js     434ae5 <x666::getNextToken(std::istream&, x666::LineInfo&)+0x3ca>
  434a42:	8b 45 cc             	mov    -0x34(%rbp),%eax
  434a45:	48 98                	cltq   
  434a47:	48 39 45 d0          	cmp    %rax,-0x30(%rbp)
  434a4b:	0f 86 94 00 00 00    	jbe    434ae5 <x666::getNextToken(std::istream&, x666::LineInfo&)+0x3ca>
          break;
        }
        if (negative) digit = -digit;
  434a51:	80 7d eb 00          	cmpb   $0x0,-0x15(%rbp)
  434a55:	74 03                	je     434a5a <x666::getNextToken(std::istream&, x666::LineInfo&)+0x33f>
  434a57:	f7 5d cc             	negl   -0x34(%rbp)
        if (wouldMAddOverflow(base, n, digit)) {
  434a5a:	48 8b 45 d0          	mov    -0x30(%rbp),%rax
  434a5e:	89 c1                	mov    %eax,%ecx
  434a60:	8b 55 cc             	mov    -0x34(%rbp),%edx
  434a63:	48 8b 45 e0          	mov    -0x20(%rbp),%rax
  434a67:	48 89 c6             	mov    %rax,%rsi
  434a6a:	89 cf                	mov    %ecx,%edi
  434a6c:	e8 17 fa ff ff       	callq  434488 <x666::wouldMAddOverflow(int, long, int)>
  434a71:	84 c0                	test   %al,%al
  434a73:	74 39                	je     434aae <x666::getNextToken(std::istream&, x666::LineInfo&)+0x393>
          return LexError(LexErrorCode::integerOverflow, li);
  434a75:	48 8b 95 28 fe ff ff 	mov    -0x1d8(%rbp),%rdx
  434a7c:	48 8d 85 90 fe ff ff 	lea    -0x170(%rbp),%rax
  434a83:	be 00 00 00 00       	mov    $0x0,%esi
  434a88:	48 89 c7             	mov    %rax,%rdi
  434a8b:	e8 e6 11 00 00       	callq  435c76 <x666::LexError::LexError(x666::LexErrorCode, x666::LineInfo const&)>
  434a90:	48 8d 85 90 fe ff ff 	lea    -0x170(%rbp),%rax
  434a97:	48 8b 95 38 fe ff ff 	mov    -0x1c8(%rbp),%rdx
  434a9e:	48 89 c6             	mov    %rax,%rsi
  434aa1:	48 89 d7             	mov    %rdx,%rdi
  434aa4:	e8 e5 19 00 00       	callq  43648e <std::variant<x666::Identifier, x666::StringLiteral, x666::IntLiteral, x666::Operator, x666::Newline, x666::EndOfFile, x666::LexError>::variant<x666::LexError, void, void, void>(x666::LexError&&)>
  434aa9:	e9 e5 08 00 00       	jmpq   435393 <x666::getNextToken(std::istream&, x666::LineInfo&)+0xc78>
        }
        n = base * n + digit;
  434aae:	48 8b 45 e0          	mov    -0x20(%rbp),%rax
  434ab2:	48 0f af 45 d0       	imul   -0x30(%rbp),%rax
  434ab7:	48 89 c2             	mov    %rax,%rdx
  434aba:	8b 45 cc             	mov    -0x34(%rbp),%eax
  434abd:	48 98                	cltq   
  434abf:	48 01 d0             	add    %rdx,%rax
  434ac2:	48 89 45 e0          	mov    %rax,-0x20(%rbp)
        getChar(fh, li);
  434ac6:	48 8b 95 28 fe ff ff 	mov    -0x1d8(%rbp),%rdx
  434acd:	48 8b 85 30 fe ff ff 	mov    -0x1d0(%rbp),%rax
  434ad4:	48 89 d6             	mov    %rdx,%rsi
  434ad7:	48 89 c7             	mov    %rax,%rdi
  434ada:	e8 e5 f8 ff ff       	callq  4343c4 <x666::getChar(std::istream&, x666::LineInfo&)>
      }
  434adf:	e9 ad fe ff ff       	jmpq   434991 <x666::getNextToken(std::istream&, x666::LineInfo&)+0x276>
        if (c == std::char_traits<char>::eof()) break;
  434ae4:	90                   	nop
      return IntLiteral(n);
  434ae5:	48 8b 55 e0          	mov    -0x20(%rbp),%rdx
  434ae9:	48 8d 85 b8 fe ff ff 	lea    -0x148(%rbp),%rax
  434af0:	48 89 d6             	mov    %rdx,%rsi
  434af3:	48 89 c7             	mov    %rax,%rdi
  434af6:	e8 61 11 00 00       	callq  435c5c <x666::IntLiteral::IntLiteral(long)>
  434afb:	48 8d 85 b8 fe ff ff 	lea    -0x148(%rbp),%rax
  434b02:	48 8b 95 38 fe ff ff 	mov    -0x1c8(%rbp),%rdx
  434b09:	48 89 c6             	mov    %rax,%rsi
  434b0c:	48 89 d7             	mov    %rdx,%rdi
  434b0f:	e8 24 1a 00 00       	callq  436538 <std::variant<x666::Identifier, x666::StringLiteral, x666::IntLiteral, x666::Operator, x666::Newline, x666::EndOfFile, x666::LexError>::variant<x666::IntLiteral, void, void, void>(x666::IntLiteral&&)>
  434b14:	e9 7a 08 00 00       	jmpq   435393 <x666::getNextToken(std::istream&, x666::LineInfo&)+0xc78>
    } else if (isalpha(c)) {
  434b19:	8b 45 ec             	mov    -0x14(%rbp),%eax
  434b1c:	89 c7                	mov    %eax,%edi
  434b1e:	e8 7d dd ff ff       	callq  4328a0 <isalpha@plt>
  434b23:	85 c0                	test   %eax,%eax
  434b25:	0f 95 c0             	setne  %al
  434b28:	84 c0                	test   %al,%al
  434b2a:	0f 84 ae 00 00 00    	je     434bde <x666::getNextToken(std::istream&, x666::LineInfo&)+0x4c3>
      // This starts an identifier.
      Identifier id((char) c);
  434b30:	8b 45 ec             	mov    -0x14(%rbp),%eax
  434b33:	0f be d0             	movsbl %al,%edx
  434b36:	48 8d 85 40 fe ff ff 	lea    -0x1c0(%rbp),%rax
  434b3d:	89 d6                	mov    %edx,%esi
  434b3f:	48 89 c7             	mov    %rax,%rdi
  434b42:	e8 63 10 00 00       	callq  435baa <x666::Identifier::Identifier(char)>
      while (true) {
        c = fh.peek();
  434b47:	48 8b 85 30 fe ff ff 	mov    -0x1d0(%rbp),%rax
  434b4e:	48 89 c7             	mov    %rax,%rdi
  434b51:	e8 7a db ff ff       	callq  4326d0 <std::istream::peek()@plt>
  434b56:	89 45 ec             	mov    %eax,-0x14(%rbp)
        if (c == std::char_traits<char>::eof()) break;
  434b59:	e8 28 10 00 00       	callq  435b86 <std::char_traits<char>::eof()>
  434b5e:	39 45 ec             	cmp    %eax,-0x14(%rbp)
  434b61:	0f 94 c0             	sete   %al
  434b64:	84 c0                	test   %al,%al
  434b66:	75 45                	jne    434bad <x666::getNextToken(std::istream&, x666::LineInfo&)+0x492>
        if (!isalpha(c)) break;
  434b68:	8b 45 ec             	mov    -0x14(%rbp),%eax
  434b6b:	89 c7                	mov    %eax,%edi
  434b6d:	e8 2e dd ff ff       	callq  4328a0 <isalpha@plt>
  434b72:	85 c0                	test   %eax,%eax
  434b74:	0f 94 c0             	sete   %al
  434b77:	84 c0                	test   %al,%al
  434b79:	75 35                	jne    434bb0 <x666::getNextToken(std::istream&, x666::LineInfo&)+0x495>
        id.name += (char) c;
  434b7b:	8b 45 ec             	mov    -0x14(%rbp),%eax
  434b7e:	0f be d0             	movsbl %al,%edx
  434b81:	48 8d 85 40 fe ff ff 	lea    -0x1c0(%rbp),%rax
  434b88:	89 d6                	mov    %edx,%esi
  434b8a:	48 89 c7             	mov    %rax,%rdi
  434b8d:	e8 3a 14 00 00       	callq  435fcc <std::__cxx11::basic_string<char, std::char_traits<char>, std::allocator<char> >::operator+=(char)>
        getChar(fh, li);
  434b92:	48 8b 95 28 fe ff ff 	mov    -0x1d8(%rbp),%rdx
  434b99:	48 8b 85 30 fe ff ff 	mov    -0x1d0(%rbp),%rax
  434ba0:	48 89 d6             	mov    %rdx,%rsi
  434ba3:	48 89 c7             	mov    %rax,%rdi
  434ba6:	e8 19 f8 ff ff       	callq  4343c4 <x666::getChar(std::istream&, x666::LineInfo&)>
        c = fh.peek();
  434bab:	eb 9a                	jmp    434b47 <x666::getNextToken(std::istream&, x666::LineInfo&)+0x42c>
        if (c == std::char_traits<char>::eof()) break;
  434bad:	90                   	nop
  434bae:	eb 01                	jmp    434bb1 <x666::getNextToken(std::istream&, x666::LineInfo&)+0x496>
        if (!isalpha(c)) break;
  434bb0:	90                   	nop
      }
      return id;
  434bb1:	48 8d 85 40 fe ff ff 	lea    -0x1c0(%rbp),%rax
  434bb8:	48 8b 95 38 fe ff ff 	mov    -0x1c8(%rbp),%rdx
  434bbf:	48 89 c6             	mov    %rax,%rsi
  434bc2:	48 89 d7             	mov    %rdx,%rdi
  434bc5:	e8 18 1a 00 00       	callq  4365e2 <std::variant<x666::Identifier, x666::StringLiteral, x666::IntLiteral, x666::Operator, x666::Newline, x666::EndOfFile, x666::LexError>::variant<x666::Identifier, void, void, void>(x666::Identifier&&)>
      Identifier id((char) c);
  434bca:	48 8d 85 40 fe ff ff 	lea    -0x1c0(%rbp),%rax
  434bd1:	48 89 c7             	mov    %rax,%rdi
  434bd4:	e8 df 10 00 00       	callq  435cb8 <x666::Identifier::~Identifier()>
  434bd9:	e9 b5 07 00 00       	jmpq   435393 <x666::getNextToken(std::istream&, x666::LineInfo&)+0xc78>
    } else {
      switch (c) {
  434bde:	8b 45 ec             	mov    -0x14(%rbp),%eax
  434be1:	83 e8 21             	sub    $0x21,%eax
  434be4:	83 f8 5d             	cmp    $0x5d,%eax
  434be7:	0f 87 3c 07 00 00    	ja     435329 <x666::getNextToken(std::istream&, x666::LineInfo&)+0xc0e>
  434bed:	89 c0                	mov    %eax,%eax
  434bef:	48 8b 04 c5 68 43 44 	mov    0x444368(,%rax,8),%rax
  434bf6:	00 
  434bf7:	ff e0                	jmpq   *%rax
        case '+': return Operator::plus;
  434bf9:	c7 85 c4 fe ff ff 04 	movl   $0x4,-0x13c(%rbp)
  434c00:	00 00 00 
  434c03:	48 8d 85 c4 fe ff ff 	lea    -0x13c(%rbp),%rax
  434c0a:	48 8b 95 38 fe ff ff 	mov    -0x1c8(%rbp),%rdx
  434c11:	48 89 c6             	mov    %rax,%rsi
  434c14:	48 89 d7             	mov    %rdx,%rdi
  434c17:	e8 c8 17 00 00       	callq  4363e4 <std::variant<x666::Identifier, x666::StringLiteral, x666::IntLiteral, x666::Operator, x666::Newline, x666::EndOfFile, x666::LexError>::variant<x666::Operator, void, void, void>(x666::Operator&&)>
  434c1c:	e9 72 07 00 00       	jmpq   435393 <x666::getNextToken(std::istream&, x666::LineInfo&)+0xc78>
        case '*': return Operator::times;
  434c21:	c7 85 c8 fe ff ff 06 	movl   $0x6,-0x138(%rbp)
  434c28:	00 00 00 
  434c2b:	48 8d 85 c8 fe ff ff 	lea    -0x138(%rbp),%rax
  434c32:	48 8b 95 38 fe ff ff 	mov    -0x1c8(%rbp),%rdx
  434c39:	48 89 c6             	mov    %rax,%rsi
  434c3c:	48 89 d7             	mov    %rdx,%rdi
  434c3f:	e8 a0 17 00 00       	callq  4363e4 <std::variant<x666::Identifier, x666::StringLiteral, x666::IntLiteral, x666::Operator, x666::Newline, x666::EndOfFile, x666::LexError>::variant<x666::Operator, void, void, void>(x666::Operator&&)>
  434c44:	e9 4a 07 00 00       	jmpq   435393 <x666::getNextToken(std::istream&, x666::LineInfo&)+0xc78>
        case '%': return Operator::modulo;
  434c49:	c7 85 cc fe ff ff 08 	movl   $0x8,-0x134(%rbp)
  434c50:	00 00 00 
  434c53:	48 8d 85 cc fe ff ff 	lea    -0x134(%rbp),%rax
  434c5a:	48 8b 95 38 fe ff ff 	mov    -0x1c8(%rbp),%rdx
  434c61:	48 89 c6             	mov    %rax,%rsi
  434c64:	48 89 d7             	mov    %rdx,%rdi
  434c67:	e8 78 17 00 00       	callq  4363e4 <std::variant<x666::Identifier, x666::StringLiteral, x666::IntLiteral, x666::Operator, x666::Newline, x666::EndOfFile, x666::LexError>::variant<x666::Operator, void, void, void>(x666::Operator&&)>
  434c6c:	e9 22 07 00 00       	jmpq   435393 <x666::getNextToken(std::istream&, x666::LineInfo&)+0xc78>
        case '~': return Operator::concat;
  434c71:	c7 85 d0 fe ff ff 09 	movl   $0x9,-0x130(%rbp)
  434c78:	00 00 00 
  434c7b:	48 8d 85 d0 fe ff ff 	lea    -0x130(%rbp),%rax
  434c82:	48 8b 95 38 fe ff ff 	mov    -0x1c8(%rbp),%rdx
  434c89:	48 89 c6             	mov    %rax,%rsi
  434c8c:	48 89 d7             	mov    %rdx,%rdi
  434c8f:	e8 50 17 00 00       	callq  4363e4 <std::variant<x666::Identifier, x666::StringLiteral, x666::IntLiteral, x666::Operator, x666::Newline, x666::EndOfFile, x666::LexError>::variant<x666::Operator, void, void, void>(x666::Operator&&)>
  434c94:	e9 fa 06 00 00       	jmpq   435393 <x666::getNextToken(std::istream&, x666::LineInfo&)+0xc78>
        case '(': return Operator::leftBracket;
  434c99:	c7 85 d4 fe ff ff 00 	movl   $0x0,-0x12c(%rbp)
  434ca0:	00 00 00 
  434ca3:	48 8d 85 d4 fe ff ff 	lea    -0x12c(%rbp),%rax
  434caa:	48 8b 95 38 fe ff ff 	mov    -0x1c8(%rbp),%rdx
  434cb1:	48 89 c6             	mov    %rax,%rsi
  434cb4:	48 89 d7             	mov    %rdx,%rdi
  434cb7:	e8 28 17 00 00       	callq  4363e4 <std::variant<x666::Identifier, x666::StringLiteral, x666::IntLiteral, x666::Operator, x666::Newline, x666::EndOfFile, x666::LexError>::variant<x666::Operator, void, void, void>(x666::Operator&&)>
  434cbc:	e9 d2 06 00 00       	jmpq   435393 <x666::getNextToken(std::istream&, x666::LineInfo&)+0xc78>
        case ')': return Operator::rightBracket;
  434cc1:	c7 85 d8 fe ff ff 01 	movl   $0x1,-0x128(%rbp)
  434cc8:	00 00 00 
  434ccb:	48 8d 85 d8 fe ff ff 	lea    -0x128(%rbp),%rax
  434cd2:	48 8b 95 38 fe ff ff 	mov    -0x1c8(%rbp),%rdx
  434cd9:	48 89 c6             	mov    %rax,%rsi
  434cdc:	48 89 d7             	mov    %rdx,%rdi
  434cdf:	e8 00 17 00 00       	callq  4363e4 <std::variant<x666::Identifier, x666::StringLiteral, x666::IntLiteral, x666::Operator, x666::Newline, x666::EndOfFile, x666::LexError>::variant<x666::Operator, void, void, void>(x666::Operator&&)>
  434ce4:	e9 aa 06 00 00       	jmpq   435393 <x666::getNextToken(std::istream&, x666::LineInfo&)+0xc78>
        case '[': return Operator::leftSBracket;
  434ce9:	c7 85 dc fe ff ff 02 	movl   $0x2,-0x124(%rbp)
  434cf0:	00 00 00 
  434cf3:	48 8d 85 dc fe ff ff 	lea    -0x124(%rbp),%rax
  434cfa:	48 8b 95 38 fe ff ff 	mov    -0x1c8(%rbp),%rdx
  434d01:	48 89 c6             	mov    %rax,%rsi
  434d04:	48 89 d7             	mov    %rdx,%rdi
